(dp0
S''
p1
(lp2
S'keith_appling'
p3
aS'andrea_bargnani'
p4
aS'anthony_bennett'
p5
aS'dejuan_blair'
p6
aS'rasual_butler'
p7
aS'mario_chalmers'
p8
aS'coty_clarke'
p9
aS'chris_copeland'
p10
aS'jared_cunningham'
p11
aS'jimmer_fredette'
p12
aS'erick_green'
p13
aS'justin_harper'
p14
aS'joe_harris'
p15
aS'chuck_hayes'
p16
aS'ryan_hollins'
p17
aS'cory_jefferson'
p18
aS'orlando_johnson'
p19
aS'ray_mccallum'
p20
aS'elijah_millsap'
p21
aS'gary_neal'
p22
aS'jj_obrien'
p23
aS'kostas_papanikolaou'
p24
aS'phil_pressey'
p25
aS'nate_robinson'
p26
aS'russ_smith'
p27
aS'alex_stepheson'
p28
aS'jarnell_stokes'
p29
aS'beno_udrih'
p30
aS'sonny_weems'
p31
aS'elliot_williams'
p32
asS'MIL'
p33
(lp34
S'giannis_antetokounmpo'
p35
aS'jerryd_bayless'
p36
aS'michael_carter-williams'
p37
aS'tyler_ennis'
p38
aS'john_henson'
p39
aS'damien_inglis'
p40
aS'oj_mayo'
p41
aS'khris_middleton'
p42
aS'greg_monroe'
p43
aS'steve_novak'
p44
aS'johnny_obryant'
p45
aS'jabari_parker'
p46
aS'miles_plumlee'
p47
aS'greivis_vasquez'
p48
aS'rashad_vaughn'
p49
asS'GSW'
p50
(lp51
S'leandro_barbosa'
p52
aS'harrison_barnes'
p53
aS'andrew_bogut'
p54
aS'ian_clark'
p55
aS'stephen_curry'
p56
aS'festus_ezeli'
p57
aS'draymond_green'
p58
aS'andre_iguodala'
p59
aS'shaun_livingston'
p60
aS'kevon_looney'
p61
aS'james_michael_mcadoo'
p62
aS'brandon_rush'
p63
aS'marreese_speights'
p64
aS'klay_thompson'
p65
aS'anderson_varejao'
p66
asS'MIN'
p67
(lp68
S'nemanja_bjelica'
p69
aS'gorgui_dieng'
p70
aS'kevin_garnett'
p71
aS'tyus_jones'
p72
aS'zach_lavine'
p73
aS'shabazz_muhammad'
p74
aS'adreian_payne'
p75
aS'nikola_pekovic'
p76
aS'tayshaun_prince'
p77
aS'ricky_rubio'
p78
aS'damjan_rudez'
p79
aS'greg_smith'
p80
aS'karl-anthony_towns'
p81
aS'andrew_wiggins'
p82
asS'TOR'
p83
(lp84
S'bismack_biyombo'
p85
aS'bruno_caboclo'
p86
aS'demarre_carroll'
p87
aS'demar_derozan'
p88
aS'james_johnson'
p89
aS'cory_joseph'
p90
aS'kyle_lowry'
p91
aS'lucas_nogueira'
p92
aS'patrick_patterson'
p93
aS'norman_powell'
p94
aS'terrence_ross'
p95
aS'luis_scola'
p96
aS'jason_thompson'
p97
aS'jonas_valanciunas'
p98
aS'delon_wright'
p99
asS'ATL'
p100
(lp101
S'kent_bazemore'
p102
aS'timothy_hardaway'
p103
aS'kirk_hinrich'
p104
aS'al_horford'
p105
aS'kris_humphries'
p106
aS'kyle_korver'
p107
aS'paul_millsap'
p108
aS'mike_muscala'
p109
aS'lamar_patterson'
p110
aS'dennis_schroder'
p111
aS'mike_scott'
p112
aS'thabo_sefolosha'
p113
aS'tiago_splitter'
p114
aS'walter_tavares'
p115
aS'jeff_teague'
p116
asS'BOS'
p117
(lp118
S'avery_bradley'
p119
aS'jae_crowder'
p120
aS'rj_hunter'
p121
aS'jonas_jerebko'
p122
aS'amir_johnson'
p123
aS'jordan_mickey'
p124
aS'kelly_olynyk'
p125
aS'terry_rozier'
p126
aS'marcus_smart'
p127
aS'jared_sullinger'
p128
aS'isaiah_thomas'
p129
aS'evan_turner'
p130
aS'james_young'
p131
aS'tyler_zeller'
p132
aS'john_holland'
p133
asS'DET'
p134
(lp135
S'joel_anthony'
p136
aS'aron_baynes'
p137
aS'steve_blake'
p138
aS'lorenzo_brown'
p139
aS'reggie_bullock'
p140
aS'kentavious_caldwell-pope'
p141
aS'spencer_dinwiddie'
p142
aS'andre_drummond'
p143
aS'tobias_harris'
p144
aS'darrun_hilliard'
p145
aS'reggie_jackson'
p146
aS'stanley_johnson'
p147
aS'jodie_meeks'
p148
aS'marcus_morris'
p149
aS'anthony_tolliver'
p150
asS'NYK'
p151
(lp152
S'arron_afflalo'
p153
aS'lou_amundson'
p154
aS'thanasis_antetokounmpo'
p155
aS'carmelo_anthony'
p156
aS'jose_calderon'
p157
aS'cleanthony_early'
p158
aS'langston_galloway'
p159
aS'jerian_grant'
p160
aS'robin_lopez'
p161
aS'kyle_oquinn'
p162
aS'kristaps_porzingis'
p163
aS'kevin_seraphin'
p164
aS'lance_thomas'
p165
aS'sasha_vujacic'
p166
aS'derrick_williams'
p167
aS'tony_wroten'
p168
asS'DEN'
p169
(lp170
S'darrell_arthur'
p171
aS'dj_augustin'
p172
aS'will_barton'
p173
aS'kenneth_faried'
p174
aS'danilo_gallinari'
p175
aS'gary_harris'
p176
aS'nikola_jokic'
p177
aS'joffrey_lauvergne'
p178
aS'mike_miller'
p179
aS'emmanuel_mudiay'
p180
aS'jameer_nelson'
p181
aS'jusuf_nurkic'
p182
aS'jakarr_sampson'
p183
aS'axel_toupane'
p184
aS'wilson_chandler'
p185
asS'SAC'
p186
(lp187
S'quincy_acy'
p188
aS'james_anderson'
p189
aS'marco_belinelli'
p190
aS'caron_butler'
p191
aS'omri_casspi'
p192
aS'willie_cauley-stein'
p193
aS'darren_collison'
p194
aS'demarcus_cousins'
p195
aS'seth_curry'
p196
aS'duje_dukan'
p197
aS'rudy_gay'
p198
aS'kosta_koufos'
p199
aS'ben_mclemore'
p200
aS'eric_moreland'
p201
aS'rajon_rondo'
p202
asS'BKN'
p203
(lp204
S'bojan_bogdanovic'
p205
aS'markel_brown'
p206
aS'wayne_ellington'
p207
aS'rondae_hollis-jefferson'
p208
aS'jarrett_jack'
p209
aS'sergey_karasev'
p210
aS'sean_kilpatrick'
p211
aS'shane_larkin'
p212
aS'brook_lopez'
p213
aS'chris_mccullough'
p214
aS'willie_reed'
p215
aS'thomas_robinson'
p216
aS'henry_sims'
p217
aS'donald_sloan'
p218
aS'thaddeus_young'
p219
asS'POR'
p220
(lp221
S'cliff_alexander'
p222
aS'al-farouq_aminu'
p223
aS'pat_connaughton'
p224
aS'allen_crabbe'
p225
aS'ed_davis'
p226
aS'maurice_harkless'
p227
aS'gerald_henderson'
p228
aS'chris_kaman'
p229
aS'meyers_leonard'
p230
aS'damian_lillard'
p231
aS'cj_mccollum'
p232
aS'luis_montero'
p233
aS'mason_plumlee'
p234
aS'brian_roberts'
p235
aS'noah_vonleh'
p236
asS'ORL'
p237
(lp238
S'dewayne_dedmon'
p239
aS'evan_fournier'
p240
aS'aaron_gordon'
p241
aS'mario_hezonja'
p242
aS'ersan_ilyasova'
p243
aS'brandon_jennings'
p244
aS'devyn_marble'
p245
aS'shabazz_napier'
p246
aS'andrew_nicholson'
p247
aS'victor_oladipo'
p248
aS'elfrid_payton'
p249
aS'jason_smith'
p250
aS'nikola_vucevic'
p251
aS'cj_watson'
p252
asS'MIA'
p253
(lp254
S'chris_bosh'
p255
aS'luol_deng'
p256
aS'goran_dragic'
p257
aS'gerald_green'
p258
aS'udonis_haslem'
p259
aS'joe_johnson'
p260
aS'tyler_johnson'
p261
aS'josh_mcroberts'
p262
aS'josh_richardson'
p263
aS'amare_stoudemire'
p264
aS'dwyane_wade'
p265
aS'briante_weber'
p266
aS'hassan_whiteside'
p267
aS'justise_winslow'
p268
aS'dorell_wright'
p269
asS'CLE'
p270
(lp271
S'matthew_dellavedova'
p272
aS'channing_frye'
p273
aS'kyrie_irving'
p274
aS'lebron_james'
p275
aS'richard_jefferson'
p276
aS'dahntay_jones'
p277
aS'james_jones'
p278
aS'sasha_kaun'
p279
aS'kevin_love'
p280
aS'jordan_mcrae'
p281
aS'timofey_mozgov'
p282
aS'iman_shumpert'
p283
aS'jr_smith'
p284
aS'tristan_t_thompson'
p285
aS'maurice_williams'
p286
asS'SAS'
p287
(lp288
S'lamarcus_aldridge'
p289
aS'kyle_anderson'
p290
aS'matt_bonner'
p291
aS'boris_diaw'
p292
aS'tim_duncan'
p293
aS'emanuel_ginobili'
p294
aS'daniel_green'
p295
aS'kawhi_leonard'
p296
aS'boban_marjanovic'
p297
aS'kevin_martin'
p298
aS'andre_miller'
p299
aS'patrick_mills'
p300
aS'tony_parker'
p301
aS'jonathon_simmons'
p302
aS'david_west'
p303
asS'CHA'
p304
(lp305
S'nicolas_batum'
p306
aS'troy_daniels'
p307
aS'jorge_gutierrez'
p308
aS'tyler_hansbrough'
p309
aS'aaron_harrison'
p310
aS'spencer_hawes'
p311
aS'al_jefferson'
p312
aS'frank_kaminsky'
p313
aS'michael_kidd-gilchrist'
p314
aS'jeremy_lamb'
p315
aS'courtney_lee'
p316
aS'jeremy_lin'
p317
aS'kemba_walker'
p318
aS'marvin_williams'
p319
aS'cody_zeller'
p320
asS'UTA'
p321
(lp322
S'trevor_booker'
p323
aS'trey_burke'
p324
aS'alec_burks'
p325
aS'derrick_favors'
p326
aS'rudy_gobert'
p327
aS'gordon_hayward'
p328
aS'rodney_hood'
p329
aS'joe_ingles'
p330
aS'christapher_johnson'
p331
aS'trey_lyles'
p332
aS'shelvin_mack'
p333
aS'raulzinho_neto'
p334
aS'tibor_pleiss'
p335
aS'jeff_withey'
p336
aS'dante_exum'
p337
asS'CHI'
p338
(lp339
S'cameron_bairstow'
p340
aS'aaron_brooks'
p341
aS'jimmy_butler'
p342
aS'mike_dunleavy'
p343
aS'cristiano_felicio'
p344
aS'pau_gasol'
p345
aS'taj_gibson'
p346
aS'justin_holiday'
p347
aS'doug_mcdermott'
p348
aS'nikola_mirotic'
p349
aS'etwaun_moore'
p350
aS'joakim_noah'
p351
aS'bobby_portis'
p352
aS'derrick_rose'
p353
aS'tony_snell'
p354
asS'HOU'
p355
(lp356
S'trevor_ariza'
p357
aS'michael_beasley'
p358
aS'patrick_beverley'
p359
aS'corey_brewer'
p360
aS'clint_capela'
p361
aS'sam_dekker'
p362
aS'andrew_goudelock'
p363
aS'james_harden'
p364
aS'montrezl_harrell'
p365
aS'dwight_howard'
p366
aS'terrence_jones'
p367
aS'kj_mcdaniels'
p368
aS'donatas_motiejunas'
p369
aS'josh_smith'
p370
aS'jason_terry'
p371
asS'WAS'
p372
(lp373
S'alan_anderson'
p374
aS'bradley_beal'
p375
aS'jared_dudley'
p376
aS'jarell_eddie'
p377
aS'drew_gooden'
p378
aS'marcin_gortat'
p379
aS'jj_hickson'
p380
aS'nene'
p381
aS'markieff_morris'
p382
aS'kelly_oubre'
p383
aS'otto_porter'
p384
aS'ramon_sessions'
p385
aS'garrett_temple'
p386
aS'marcus_t_thornton'
p387
aS'john_wall'
p388
asS'LAL'
p389
(lp390
S'brandon_bass'
p391
aS'tarik_black'
p392
aS'anthony_brown'
p393
aS'kobe_bryant'
p394
aS'jordan_clarkson'
p395
aS'roy_hibbert'
p396
aS'marcelo_huertas'
p397
aS'ryan_kelly'
p398
aS'larry_nance'
p399
aS'julius_randle'
p400
aS'dangelo_russell'
p401
aS'robert_sacre'
p402
aS'louis_williams'
p403
aS'metta_world_peace'
p404
aS'nick_young'
p405
asS'PHI'
p406
(lp407
S'elton_brand'
p408
aS'isaiah_canaan'
p409
aS'robert_covington'
p410
aS'jerami_grant'
p411
aS'richaun_holmes'
p412
aS'carl_landry'
p413
aS'kendall_marshall'
p414
aS'tj_mcconnell'
p415
aS'nerlens_noel'
p416
aS'jahlil_okafor'
p417
aS'ish_smith'
p418
aS'nik_stauskas'
p419
aS'hollis_thompson'
p420
aS'christian_wood'
p421
aS'joel_embiid'
p422
asS'MEM'
p423
(lp424
S'jordan_adams'
p425
aS'tony_allen'
p426
aS'chris_andersen'
p427
aS'matt_barnes'
p428
aS'vince_carter'
p429
aS'mike_conley'
p430
aS'bryce_cotton'
p431
aS'jordan_farmar'
p432
aS'marc_gasol'
p433
aS'jamychal_green'
p434
aS'pj_hairston'
p435
aS'jarell_martin'
p436
aS'xavier_munford'
p437
aS'zach_randolph'
p438
aS'lance_stephenson'
p439
aS'brandan_wright'
p440
asS'LAC'
p441
(lp442
S'cole_aldrich'
p443
aS'jeff_ayres'
p444
aS'jamal_crawford'
p445
aS'branden_dawson'
p446
aS'jeff_green'
p447
aS'blake_griffin'
p448
aS'wesley_johnson'
p449
aS'deandre_jordan'
p450
aS'luc_mbah_a_moute'
p451
aS'chris_paul'
p452
aS'paul_pierce'
p453
aS'pablo_prigioni'
p454
aS'jj_redick'
p455
aS'austin_rivers'
p456
aS'cj_wilcox'
p457
asS'DAL'
p458
(lp459
S'justin_anderson'
p460
aS'jose_barea'
p461
aS'jeremy_evans'
p462
aS'raymond_felton'
p463
aS'devin_harris'
p464
aS'david_lee'
p465
aS'wesley_matthews'
p466
aS'javale_mcgee'
p467
aS'salah_mejri'
p468
aS'dirk_nowitzki'
p469
aS'zaza_pachulia'
p470
aS'chandler_parsons'
p471
aS'dwight_powell'
p472
aS'charlie_villanueva'
p473
aS'deron_williams'
p474
asS'OKC'
p475
(lp476
S'steven_adams'
p477
aS'nick_collison'
p478
aS'kevin_durant'
p479
aS'randy_foye'
p480
aS'josh_huestis'
p481
aS'serge_ibaka'
p482
aS'enes_kanter'
p483
aS'mitch_mcgary'
p484
aS'nazr_mohammed'
p485
aS'anthony_morrow'
p486
aS'cameron_payne'
p487
aS'andre_roberson'
p488
aS'kyle_singler'
p489
aS'dion_waiters'
p490
aS'russell_westbrook'
p491
asS'PHX'
p492
(lp493
S'eric_bledsoe'
p494
aS'devin_booker'
p495
aS'chase_budinger'
p496
aS'tyson_chandler'
p497
aS'archie_goodwin'
p498
aS'john_jenkins'
p499
aS'brandon_knight'
p500
aS'alex_len'
p501
aS'jon_leuer'
p502
aS'ronnie_price'
p503
aS'mirza_teletovic'
p504
aS'pj_tucker'
p505
aS'tj_warren'
p506
aS'alan_williams'
p507
asS'IND'
p508
(lp509
S'lavoy_allen'
p510
aS'rakeem_christmas'
p511
aS'monta_ellis'
p512
aS'paul_george'
p513
aS'george_hill'
p514
aS'jordan_hill'
p515
aS'solomon_hill'
p516
aS'ty_lawson'
p517
aS'ian_mahinmi'
p518
aS'cj_miles'
p519
aS'glenn_robinson_iii'
p520
aS'rodney_stuckey'
p521
aS'myles_turner'
p522
aS'shayne_whittington'
p523
aS'joe_young'
p524
asS'NOP'
p525
(lp526
S'alexis_ajinca'
p527
aS'ryan_j_anderson'
p528
aS'omer_asik'
p529
aS'luke_babbitt'
p530
aS'norris_cole'
p531
aS'dante_cunningham'
p532
aS'anthony_davis'
p533
aS'bryce_dejean-jones'
p534
aS'toney_douglas'
p535
aS'james_ennis'
p536
aS'tyreke_evans'
p537
aS'tim_frazier'
p538
aS'alonzo_gee'
p539
aS'eric_gordon'
p540
aS'jordan_hamilton'
p541
aS'jrue_holiday'
p542
aS'kendrick_perkins'
p543
aS'quincy_pondexter'
p544
as.