(dp0
S''
p1
(lp2
S'keith_appling'
p3
aS'andrea_bargnani'
p4
aS'anthony_bennett'
p5
aS'dejuan_blair'
p6
aS'rasual_butler'
p7
aS'mario_chalmers'
p8
aS'coty_clarke'
p9
aS'chris_copeland'
p10
aS'jared_cunningham'
p11
aS'jimmer_fredette'
p12
aS'erick_green'
p13
aS'justin_harper'
p14
aS'joe_harris'
p15
aS'chuck_hayes'
p16
aS'ryan_hollins'
p17
aS'cory_jefferson'
p18
aS'orlando_johnson'
p19
aS'ray_mccallum'
p20
aS'elijah_millsap'
p21
aS'gary_neal'
p22
aS'jj_obrien'
p23
aS'kostas_papanikolaou'
p24
aS'phil_pressey'
p25
aS'nate_robinson'
p26
aS'russ_smith'
p27
aS'alex_stepheson'
p28
aS'jarnell_stokes'
p29
aS'beno_udrih'
p30
aS'sonny_weems'
p31
aS'elliot_williams'
p32
asS'MIL'
p33
(lp34
S'giannis_antetokounmpo'
p35
aS'jerryd_bayless'
p36
aS'michael_carter-williams'
p37
aS'tyler_ennis'
p38
aS'john_henson'
p39
aS'damien_inglis'
p40
aS'oj_mayo'
p41
aS'khris_middleton'
p42
aS'greg_monroe'
p43
aS'steve_novak'
p44
aS'johnny_obryant'
p45
aS'jabari_parker'
p46
aS'miles_plumlee'
p47
aS'greivis_vasquez'
p48
aS'rashad_vaughn'
p49
asS'GSW'
p50
(lp51
S'leandro_barbosa'
p52
aS'harrison_barnes'
p53
aS'andrew_bogut'
p54
aS'ian_clark'
p55
aS'stephen_curry'
p56
aS'festus_ezeli'
p57
aS'draymond_green'
p58
aS'andre_iguodala'
p59
aS'shaun_livingston'
p60
aS'kevon_looney'
p61
aS'james_michael_mcadoo'
p62
aS'brandon_rush'
p63
aS'marreese_speights'
p64
aS'klay_thompson'
p65
aS'anderson_varejao'
p66
asS'MIN'
p67
(lp68
S'nemanja_bjelica'
p69
aS'gorgui_dieng'
p70
aS'kevin_garnett'
p71
aS'tyus_jones'
p72
aS'zach_lavine'
p73
aS'shabazz_muhammad'
p74
aS'adreian_payne'
p75
aS'nikola_pekovic'
p76
aS'tayshaun_prince'
p77
aS'ricky_rubio'
p78
aS'damjan_rudez'
p79
aS'greg_smith'
p80
aS'karl-anthony_towns'
p81
aS'andrew_wiggins'
p82
asS'TOR'
p83
(lp84
S'bismack_biyombo'
p85
aS'bruno_caboclo'
p86
aS'demarre_carroll'
p87
aS'demar_derozan'
p88
aS'james_johnson'
p89
aS'cory_joseph'
p90
aS'kyle_lowry'
p91
aS'lucas_nogueira'
p92
aS'patrick_patterson'
p93
aS'norman_powell'
p94
aS'terrence_ross'
p95
aS'luis_scola'
p96
aS'jason_thompson'
p97
aS'jonas_valanciunas'
p98
aS'delon_wright'
p99
asS'ATL'
p100
(lp101
S'kent_bazemore'
p102
aS'timothy_hardaway'
p103
aS'kirk_hinrich'
p104
aS'al_horford'
p105
aS'kris_humphries'
p106
aS'kyle_korver'
p107
aS'paul_millsap'
p108
aS'mike_muscala'
p109
aS'lamar_patterson'
p110
aS'dennis_schroder'
p111
aS'mike_scott'
p112
aS'thabo_sefolosha'
p113
aS'tiago_splitter'
p114
aS'walter_tavares'
p115
aS'jeff_teague'
p116
asS'BOS'
p117
(lp118
S'avery_bradley'
p119
aS'jae_crowder'
p120
aS'rj_hunter'
p121
aS'jonas_jerebko'
p122
aS'amir_johnson'
p123
aS'jordan_mickey'
p124
aS'kelly_olynyk'
p125
aS'terry_rozier'
p126
aS'marcus_smart'
p127
aS'jared_sullinger'
p128
aS'isaiah_thomas'
p129
aS'evan_turner'
p130
aS'james_young'
p131
aS'tyler_zeller'
p132
asS'DET'
p133
(lp134
S'joel_anthony'
p135
aS'aron_baynes'
p136
aS'steve_blake'
p137
aS'lorenzo_brown'
p138
aS'reggie_bullock'
p139
aS'kentavious_caldwell-pope'
p140
aS'spencer_dinwiddie'
p141
aS'andre_drummond'
p142
aS'tobias_harris'
p143
aS'darrun_hilliard'
p144
aS'reggie_jackson'
p145
aS'stanley_johnson'
p146
aS'jodie_meeks'
p147
aS'marcus_morris'
p148
aS'anthony_tolliver'
p149
asS'NYK'
p150
(lp151
S'arron_afflalo'
p152
aS'lou_amundson'
p153
aS'thanasis_antetokounmpo'
p154
aS'carmelo_anthony'
p155
aS'jose_calderon'
p156
aS'cleanthony_early'
p157
aS'langston_galloway'
p158
aS'jerian_grant'
p159
aS'robin_lopez'
p160
aS'kyle_oquinn'
p161
aS'kristaps_porzingis'
p162
aS'kevin_seraphin'
p163
aS'lance_thomas'
p164
aS'sasha_vujacic'
p165
aS'derrick_williams'
p166
aS'tony_wroten'
p167
asS'DEN'
p168
(lp169
S'darrell_arthur'
p170
aS'dj_augustin'
p171
aS'will_barton'
p172
aS'kenneth_faried'
p173
aS'danilo_gallinari'
p174
aS'gary_harris'
p175
aS'nikola_jokic'
p176
aS'joffrey_lauvergne'
p177
aS'mike_miller'
p178
aS'emmanuel_mudiay'
p179
aS'jameer_nelson'
p180
aS'jusuf_nurkic'
p181
aS'jakarr_sampson'
p182
aS'axel_toupane'
p183
asS'SAC'
p184
(lp185
S'quincy_acy'
p186
aS'james_anderson'
p187
aS'marco_belinelli'
p188
aS'caron_butler'
p189
aS'omri_casspi'
p190
aS'willie_cauley-stein'
p191
aS'darren_collison'
p192
aS'demarcus_cousins'
p193
aS'seth_curry'
p194
aS'duje_dukan'
p195
aS'rudy_gay'
p196
aS'kosta_koufos'
p197
aS'ben_mclemore'
p198
aS'eric_moreland'
p199
aS'rajon_rondo'
p200
asS'BKN'
p201
(lp202
S'bojan_bogdanovic'
p203
aS'markel_brown'
p204
aS'wayne_ellington'
p205
aS'rondae_hollis-jefferson'
p206
aS'jarrett_jack'
p207
aS'sergey_karasev'
p208
aS'sean_kilpatrick'
p209
aS'shane_larkin'
p210
aS'brook_lopez'
p211
aS'chris_mccullough'
p212
aS'willie_reed'
p213
aS'thomas_robinson'
p214
aS'henry_sims'
p215
aS'donald_sloan'
p216
aS'thaddeus_young'
p217
asS'POR'
p218
(lp219
S'cliff_alexander'
p220
aS'al-farouq_aminu'
p221
aS'pat_connaughton'
p222
aS'allen_crabbe'
p223
aS'ed_davis'
p224
aS'maurice_harkless'
p225
aS'gerald_henderson'
p226
aS'chris_kaman'
p227
aS'meyers_leonard'
p228
aS'damian_lillard'
p229
aS'cj_mccollum'
p230
aS'luis_montero'
p231
aS'mason_plumlee'
p232
aS'brian_roberts'
p233
aS'noah_vonleh'
p234
asS'ORL'
p235
(lp236
S'dewayne_dedmon'
p237
aS'evan_fournier'
p238
aS'aaron_gordon'
p239
aS'mario_hezonja'
p240
aS'ersan_ilyasova'
p241
aS'brandon_jennings'
p242
aS'devyn_marble'
p243
aS'shabazz_napier'
p244
aS'andrew_nicholson'
p245
aS'victor_oladipo'
p246
aS'elfrid_payton'
p247
aS'jason_smith'
p248
aS'nikola_vucevic'
p249
aS'cj_watson'
p250
asS'MIA'
p251
(lp252
S'chris_bosh'
p253
aS'luol_deng'
p254
aS'goran_dragic'
p255
aS'gerald_green'
p256
aS'udonis_haslem'
p257
aS'joe_johnson'
p258
aS'tyler_johnson'
p259
aS'josh_mcroberts'
p260
aS'josh_richardson'
p261
aS'amare_stoudemire'
p262
aS'dwyane_wade'
p263
aS'briante_weber'
p264
aS'hassan_whiteside'
p265
aS'justise_winslow'
p266
asS'CLE'
p267
(lp268
S'matthew_dellavedova'
p269
aS'channing_frye'
p270
aS'kyrie_irving'
p271
aS'lebron_james'
p272
aS'richard_jefferson'
p273
aS'dahntay_jones'
p274
aS'james_jones'
p275
aS'sasha_kaun'
p276
aS'kevin_love'
p277
aS'jordan_mcrae'
p278
aS'timofey_mozgov'
p279
aS'iman_shumpert'
p280
aS'jr_smith'
p281
aS'tristan_t_thompson'
p282
aS'maurice_williams'
p283
asS'SAS'
p284
(lp285
S'lamarcus_aldridge'
p286
aS'kyle_anderson'
p287
aS'matt_bonner'
p288
aS'boris_diaw'
p289
aS'tim_duncan'
p290
aS'emanuel_ginobili'
p291
aS'daniel_green'
p292
aS'kawhi_leonard'
p293
aS'boban_marjanovic'
p294
aS'kevin_martin'
p295
aS'andre_miller'
p296
aS'patrick_mills'
p297
aS'tony_parker'
p298
aS'jonathon_simmons'
p299
aS'david_west'
p300
asS'CHA'
p301
(lp302
S'nicolas_batum'
p303
aS'troy_daniels'
p304
aS'jorge_gutierrez'
p305
aS'tyler_hansbrough'
p306
aS'aaron_harrison'
p307
aS'spencer_hawes'
p308
aS'al_jefferson'
p309
aS'frank_kaminsky'
p310
aS'michael_kidd-gilchrist'
p311
aS'jeremy_lamb'
p312
aS'courtney_lee'
p313
aS'jeremy_lin'
p314
aS'kemba_walker'
p315
aS'marvin_williams'
p316
aS'cody_zeller'
p317
asS'UTA'
p318
(lp319
S'trevor_booker'
p320
aS'trey_burke'
p321
aS'alec_burks'
p322
aS'derrick_favors'
p323
aS'rudy_gobert'
p324
aS'gordon_hayward'
p325
aS'rodney_hood'
p326
aS'joe_ingles'
p327
aS'christapher_johnson'
p328
aS'trey_lyles'
p329
aS'shelvin_mack'
p330
aS'raulzinho_neto'
p331
aS'tibor_pleiss'
p332
aS'jeff_withey'
p333
asS'CHI'
p334
(lp335
S'cameron_bairstow'
p336
aS'aaron_brooks'
p337
aS'jimmy_butler'
p338
aS'mike_dunleavy'
p339
aS'cristiano_felicio'
p340
aS'pau_gasol'
p341
aS'taj_gibson'
p342
aS'justin_holiday'
p343
aS'doug_mcdermott'
p344
aS'nikola_mirotic'
p345
aS'etwaun_moore'
p346
aS'joakim_noah'
p347
aS'bobby_portis'
p348
aS'derrick_rose'
p349
aS'tony_snell'
p350
asS'HOU'
p351
(lp352
S'trevor_ariza'
p353
aS'michael_beasley'
p354
aS'patrick_beverley'
p355
aS'corey_brewer'
p356
aS'clint_capela'
p357
aS'sam_dekker'
p358
aS'andrew_goudelock'
p359
aS'james_harden'
p360
aS'montrezl_harrell'
p361
aS'dwight_howard'
p362
aS'terrence_jones'
p363
aS'kj_mcdaniels'
p364
aS'donatas_motiejunas'
p365
aS'josh_smith'
p366
aS'jason_terry'
p367
asS'WAS'
p368
(lp369
S'alan_anderson'
p370
aS'bradley_beal'
p371
aS'jared_dudley'
p372
aS'jarell_eddie'
p373
aS'drew_gooden'
p374
aS'marcin_gortat'
p375
aS'jj_hickson'
p376
aS'nene'
p377
aS'markieff_morris'
p378
aS'kelly_oubre'
p379
aS'otto_porter'
p380
aS'ramon_sessions'
p381
aS'garrett_temple'
p382
aS'marcus_t_thornton'
p383
aS'john_wall'
p384
asS'LAL'
p385
(lp386
S'brandon_bass'
p387
aS'tarik_black'
p388
aS'anthony_brown'
p389
aS'kobe_bryant'
p390
aS'jordan_clarkson'
p391
aS'roy_hibbert'
p392
aS'marcelo_huertas'
p393
aS'ryan_kelly'
p394
aS'larry_nance'
p395
aS'julius_randle'
p396
aS'dangelo_russell'
p397
aS'robert_sacre'
p398
aS'louis_williams'
p399
aS'metta_world_peace'
p400
aS'nick_young'
p401
asS'PHI'
p402
(lp403
S'elton_brand'
p404
aS'isaiah_canaan'
p405
aS'robert_covington'
p406
aS'jerami_grant'
p407
aS'richaun_holmes'
p408
aS'carl_landry'
p409
aS'kendall_marshall'
p410
aS'tj_mcconnell'
p411
aS'nerlens_noel'
p412
aS'jahlil_okafor'
p413
aS'ish_smith'
p414
aS'nik_stauskas'
p415
aS'hollis_thompson'
p416
aS'christian_wood'
p417
asS'MEM'
p418
(lp419
S'jordan_adams'
p420
aS'tony_allen'
p421
aS'chris_andersen'
p422
aS'matt_barnes'
p423
aS'vince_carter'
p424
aS'mike_conley'
p425
aS'bryce_cotton'
p426
aS'jordan_farmar'
p427
aS'marc_gasol'
p428
aS'jamychal_green'
p429
aS'pj_hairston'
p430
aS'jarell_martin'
p431
aS'xavier_munford'
p432
aS'zach_randolph'
p433
aS'lance_stephenson'
p434
aS'brandan_wright'
p435
asS'LAC'
p436
(lp437
S'cole_aldrich'
p438
aS'jeff_ayres'
p439
aS'jamal_crawford'
p440
aS'branden_dawson'
p441
aS'jeff_green'
p442
aS'blake_griffin'
p443
aS'wesley_johnson'
p444
aS'deandre_jordan'
p445
aS'luc_mbah_a_moute'
p446
aS'chris_paul'
p447
aS'paul_pierce'
p448
aS'pablo_prigioni'
p449
aS'jj_redick'
p450
aS'austin_rivers'
p451
aS'cj_wilcox'
p452
asS'DAL'
p453
(lp454
S'justin_anderson'
p455
aS'jose_barea'
p456
aS'jeremy_evans'
p457
aS'raymond_felton'
p458
aS'devin_harris'
p459
aS'david_lee'
p460
aS'wesley_matthews'
p461
aS'javale_mcgee'
p462
aS'salah_mejri'
p463
aS'dirk_nowitzki'
p464
aS'zaza_pachulia'
p465
aS'chandler_parsons'
p466
aS'dwight_powell'
p467
aS'charlie_villanueva'
p468
aS'deron_williams'
p469
asS'OKC'
p470
(lp471
S'steven_adams'
p472
aS'nick_collison'
p473
aS'kevin_durant'
p474
aS'randy_foye'
p475
aS'josh_huestis'
p476
aS'serge_ibaka'
p477
aS'enes_kanter'
p478
aS'mitch_mcgary'
p479
aS'nazr_mohammed'
p480
aS'anthony_morrow'
p481
aS'cameron_payne'
p482
aS'andre_roberson'
p483
aS'kyle_singler'
p484
aS'dion_waiters'
p485
aS'russell_westbrook'
p486
asS'PHX'
p487
(lp488
S'eric_bledsoe'
p489
aS'devin_booker'
p490
aS'chase_budinger'
p491
aS'tyson_chandler'
p492
aS'archie_goodwin'
p493
aS'john_jenkins'
p494
aS'brandon_knight'
p495
aS'alex_len'
p496
aS'jon_leuer'
p497
aS'ronnie_price'
p498
aS'mirza_teletovic'
p499
aS'pj_tucker'
p500
aS'tj_warren'
p501
aS'alan_williams'
p502
asS'IND'
p503
(lp504
S'lavoy_allen'
p505
aS'rakeem_christmas'
p506
aS'monta_ellis'
p507
aS'paul_george'
p508
aS'george_hill'
p509
aS'jordan_hill'
p510
aS'solomon_hill'
p511
aS'ty_lawson'
p512
aS'ian_mahinmi'
p513
aS'cj_miles'
p514
aS'glenn_robinson_iii'
p515
aS'rodney_stuckey'
p516
aS'myles_turner'
p517
aS'shayne_whittington'
p518
aS'joe_young'
p519
asS'NOP'
p520
(lp521
S'alexis_ajinca'
p522
aS'ryan_j_anderson'
p523
aS'omer_asik'
p524
aS'luke_babbitt'
p525
aS'norris_cole'
p526
aS'dante_cunningham'
p527
aS'anthony_davis'
p528
aS'bryce_dejean-jones'
p529
aS'toney_douglas'
p530
aS'james_ennis'
p531
aS'tyreke_evans'
p532
aS'tim_frazier'
p533
aS'alonzo_gee'
p534
aS'eric_gordon'
p535
aS'jordan_hamilton'
p536
aS'jrue_holiday'
p537
aS'kendrick_perkins'
p538
as.