(dp0
S'patrick_mills'
p1
(lp2
F226.0
aF6.0
aF131.0
aF320.0
aF123.0
aF30.375999999999998
aF612.0
aF260.0
aF34.010000000000005
aF58.0
aF47.0
aF19.084
aF27.0
aF102.0
aF377.0
aF690.0
aF158.0
aF59.0
aF76.0
asS'ryan_kelly'
p3
(lp4
F20.0
aF10.0
aF100.0
aF37.0
aF5.0
aF2.499
aF149.0
aF55.0
aF13.948
aF54.0
aF37.0
aF14.267
aF21.0
aF39.0
aF-2.0
aF152.0
aF121.0
aF13.0
aF18.0
asS'boban_marjanovic'
p5
(lp6
F21.0
aF23.0
aF121.0
aF0.0
aF0.0
aF0.0
aF174.0
aF105.0
aF23.479
aF114.0
aF87.0
aF24.564
aF73.0
aF54.0
aF54.0
aF297.0
aF194.0
aF12.0
aF29.0
asS'quincy_acy'
p7
(lp8
F27.0
aF24.0
aF123.0
aF49.0
aF19.0
aF11.9
aF214.0
aF119.0
aF28.524
aF68.0
aF50.0
aF20.0
aF65.0
aF103.0
aF-126.0
aF307.0
aF188.0
aF29.0
aF27.0
asS'carl_landry'
p9
(lp10
F32.0
aF9.0
aF97.0
aF13.0
aF6.0
aF3.5
aF250.0
aF139.0
aF16.897
aF91.0
aF67.0
aF17.017
aF49.0
aF69.0
aF-111.0
aF351.0
aF146.0
aF12.0
aF22.0
asS'nerlens_noel'
p11
(lp12
F122.0
aF100.0
aF388.0
aF2.0
aF1.0
aF1.0
aF587.0
aF306.0
aF35.264999999999986
aF227.0
aF134.0
aF31.864000000000008
aF154.0
aF192.0
aF-459.0
aF747.0
aF542.0
aF118.0
aF158.0
asS'james_jones'
p13
(lp14
F14.0
aF10.0
aF42.0
aF104.0
aF41.0
aF15.933
aF142.0
aF58.0
aF15.859999999999998
aF26.0
aF21.0
aF8.333
aF8.0
aF50.0
aF-21.0
aF178.0
aF50.0
aF11.0
aF13.0
asS'mirza_teletovic'
p15
(lp16
F89.0
aF21.0
aF247.0
aF460.0
aF181.0
aF28.65299999999999
aF777.0
aF332.0
aF31.876999999999992
aF155.0
aF120.0
aF35.511
aF55.0
aF159.0
aF-162.0
aF965.0
aF302.0
aF32.0
aF84.0
asS'jr_smith'
p17
(lp18
F130.0
aF21.0
aF174.0
aF510.0
aF204.0
aF27.581999999999994
aF850.0
aF353.0
aF31.468999999999994
aF71.0
aF45.0
aF17.883000000000003
aF43.0
aF204.0
aF308.0
aF955.0
aF217.0
aF81.0
aF59.0
asS'jerryd_bayless'
p19
(lp20
F163.0
aF11.0
aF120.0
aF231.0
aF101.0
aF21.177
aF437.0
aF185.0
aF20.93699999999999
aF90.0
aF70.0
aF21.213
aF21.0
aF111.0
aF-184.0
aF541.0
aF141.0
aF47.0
aF73.0
asS'emanuel_ginobili'
p21
(lp22
F177.0
aF11.0
aF120.0
aF179.0
aF70.0
aF21.165
aF435.0
aF197.0
aF24.940000000000012
aF112.0
aF91.0
aF29.942000000000004
aF26.0
aF99.0
aF329.0
aF555.0
aF146.0
aF66.0
aF99.0
asS'alonzo_gee'
p23
(lp24
F72.0
aF13.0
aF185.0
aF60.0
aF17.0
aF11.166
aF255.0
aF132.0
aF32.967
aF66.0
aF44.0
aF18.096
aF60.0
aF169.0
aF-196.0
aF325.0
aF245.0
aF63.0
aF55.0
asS'maurice_williams'
p25
(lp26
F98.0
aF5.0
aF66.0
aF102.0
aF36.0
aF10.329
aF302.0
aF132.0
aF16.163
aF42.0
aF38.0
aF12.567
aF6.0
aF60.0
aF-50.0
aF338.0
aF72.0
aF14.0
aF57.0
asS'paul_millsap'
p27
(lp28
F265.0
aF139.0
aF534.0
aF232.0
aF74.0
aF21.898
aF1066.0
aF501.0
aF37.97
aF408.0
aF309.0
aF57.094999999999985
aF198.0
aF237.0
aF215.0
aF1385.0
aF732.0
aF147.0
aF191.0
asS'amare_stoudemire'
p29
(lp30
F27.0
aF41.0
aF157.0
aF0.0
aF0.0
aF0.0
aF221.0
aF125.0
aF27.088999999999995
aF67.0
aF50.0
aF20.05
aF65.0
aF92.0
aF9.0
aF300.0
aF222.0
aF18.0
aF47.0
asS'jakarr_sampson'
p31
(lp32
F46.0
aF33.0
aF144.0
aF63.0
aF14.0
aF9.333
aF317.0
aF140.0
aF28.515000000000004
aF122.0
aF80.0
aF25.966
aF46.0
aF142.0
aF-233.0
aF374.0
aF190.0
aF23.0
aF70.0
asS'harrison_barnes'
p33
(lp34
F117.0
aF10.0
aF248.0
aF214.0
aF82.0
aF21.771000000000004
aF633.0
aF295.0
aF30.783999999999992
aF134.0
aF102.0
aF34.729
aF77.0
aF136.0
aF460.0
aF774.0
aF325.0
aF41.0
aF57.0
asS'kendall_marshall'
p35
(lp36
F73.0
aF2.0
aF26.0
aF49.0
aF16.0
aF8.532
aF118.0
aF43.0
aF10.331000000000001
aF13.0
aF9.0
aF4.25
aF2.0
aF30.0
aF-114.0
aF111.0
aF28.0
aF16.0
aF43.0
asS'lavoy_allen'
p37
(lp38
F76.0
aF42.0
aF262.0
aF0.0
aF0.0
aF0.0
aF370.0
aF191.0
aF39.12600000000001
aF73.0
aF46.0
aF21.333
aF162.0
aF147.0
aF189.0
aF428.0
aF424.0
aF26.0
aF69.0
asS'marcin_gortat'
p39
(lp40
F106.0
aF96.0
aF519.0
aF1.0
aF0.0
aF0.0
aF764.0
aF433.0
aF42.737000000000016
aF207.0
aF146.0
aF42.535999999999994
aF222.0
aF193.0
aF64.0
aF1012.0
aF741.0
aF47.0
aF121.0
asS'festus_ezeli'
p41
(lp42
F32.0
aF50.0
aF166.0
aF0.0
aF0.0
aF0.0
aF228.0
aF125.0
aF23.512999999999998
aF132.0
aF70.0
aF20.195000000000004
aF91.0
aF94.0
aF223.0
aF320.0
aF257.0
aF18.0
aF38.0
asS'luis_scola'
p43
(lp44
F66.0
aF27.0
aF276.0
aF161.0
aF65.0
aF24.115999999999996
aF598.0
aF269.0
aF29.893000000000004
aF84.0
aF61.0
aF22.416999999999998
aF84.0
aF178.0
aF-28.0
aF664.0
aF360.0
aF46.0
aF68.0
asS'mario_hezonja'
p45
(lp46
F109.0
aF17.0
aF148.0
aF192.0
aF67.0
aF21.737
aF418.0
aF181.0
aF31.705999999999996
aF54.0
aF49.0
aF21.75
aF28.0
aF124.0
aF0.0
aF478.0
aF176.0
aF39.0
aF97.0
asS'jamal_crawford'
p47
(lp48
F183.0
aF12.0
aF125.0
aF344.0
aF117.0
aF23.337999999999994
aF939.0
aF379.0
aF29.640999999999995
aF271.0
aF245.0
aF58.233
aF20.0
aF122.0
aF168.0
aF1120.0
aF145.0
aF52.0
aF113.0
asS'derrick_rose'
p49
(lp50
F311.0
aF14.0
aF179.0
aF150.0
aF44.0
aF14.815
aF1048.0
aF447.0
aF27.606999999999996
aF179.0
aF142.0
aF39.41899999999999
aF46.0
aF84.0
aF-166.0
aF1080.0
aF225.0
aF44.0
aF175.0
asS'paul_george'
p51
(lp52
F329.0
aF29.0
aF484.0
aF566.0
aF210.0
aF28.864999999999995
aF1449.0
aF605.0
aF33.437999999999995
aF528.0
aF454.0
aF67.36899999999999
aF79.0
aF230.0
aF181.0
aF1874.0
aF563.0
aF152.0
aF265.0
asS'jerami_grant'
p53
(lp54
F135.0
aF127.0
aF262.0
aF146.0
aF35.0
aF15.011000000000001
aF599.0
aF251.0
aF32.806000000000004
aF322.0
aF212.0
aF46.443000000000005
aF99.0
aF215.0
aF-497.0
aF749.0
aF361.0
aF54.0
aF110.0
asS'lebron_james'
p55
(lp56
F514.0
aF49.0
aF454.0
aF282.0
aF87.0
aF21.98999999999999
aF1416.0
aF737.0
aF40.285
aF491.0
aF359.0
aF56.15200000000001
aF111.0
aF143.0
aF618.0
aF1920.0
aF565.0
aF104.0
aF249.0
asS'tj_mcconnell'
p57
(lp58
F367.0
aF10.0
aF207.0
aF89.0
aF31.0
aF17.948999999999998
aF464.0
aF218.0
aF36.729
aF41.0
aF26.0
aF12.167
aF43.0
aF114.0
aF-274.0
aF493.0
aF250.0
aF95.0
aF140.0
asS'shaun_livingston'
p59
(lp60
F237.0
aF27.0
aF127.0
aF12.0
aF2.0
aF2.0
aF379.0
aF203.0
aF41.67300000000001
aF93.0
aF80.0
aF33.730999999999995
aF42.0
aF140.0
aF208.0
aF488.0
aF169.0
aF57.0
aF78.0
asS'gary_harris'
p61
(lp62
F147.0
aF18.0
aF166.0
aF297.0
aF105.0
aF27.502999999999993
aF765.0
aF359.0
aF35.35999999999999
aF133.0
aF109.0
aF41.868
aF54.0
aF143.0
aF-212.0
aF932.0
aF220.0
aF97.0
aF98.0
asS'kyle_singler'
p63
(lp64
F24.0
aF9.0
aF91.0
aF97.0
aF30.0
aF14.35
aF221.0
aF86.0
aF23.791
aF44.0
aF29.0
aF13.0
aF50.0
aF120.0
aF-22.0
aF231.0
aF141.0
aF30.0
aF32.0
asS'victor_oladipo'
p65
(lp66
F282.0
aF54.0
aF297.0
aF282.0
aF98.0
aF24.171999999999983
aF970.0
aF425.0
aF30.898
aF247.0
aF205.0
aF44.56399999999999
aF48.0
aF174.0
aF-22.0
aF1153.0
aF345.0
aF116.0
aF153.0
asS'etwaun_moore'
p67
(lp68
F99.0
aF18.0
aF114.0
aF104.0
aF47.0
aF19.499000000000002
aF389.0
aF187.0
aF24.483999999999998
aF35.0
aF22.0
aF11.0
aF19.0
aF103.0
aF-37.0
aF443.0
aF133.0
aF37.0
aF53.0
asS'austin_rivers'
p69
(lp70
F99.0
aF9.0
aF108.0
aF185.0
aF62.0
aF17.709
aF516.0
aF226.0
aF27.869
aF116.0
aF79.0
aF30.066
aF22.0
aF137.0
aF-163.0
aF593.0
aF130.0
aF48.0
aF61.0
asS'tyler_hansbrough'
p71
(lp72
F8.0
aF7.0
aF49.0
aF3.0
aF2.0
aF2.0
aF71.0
aF32.0
aF16.163
aF65.0
aF38.0
aF9.45
aF40.0
aF55.0
aF-33.0
aF104.0
aF89.0
aF12.0
aF12.0
asS'dion_waiters'
p73
(lp74
F154.0
aF15.0
aF166.0
aF240.0
aF86.0
aF23.593999999999994
aF706.0
aF282.0
aF30.595000000000013
aF157.0
aF112.0
aF30.487999999999996
aF36.0
aF143.0
aF219.0
aF762.0
aF202.0
aF81.0
aF120.0
asS'keith_appling'
p75
(lp76
F1.0
aF0.0
aF1.0
aF3.0
aF0.0
aF0.0
aF8.0
aF2.0
aF0.666
aF2.0
aF2.0
aF1.0
aF0.0
aF5.0
aF14.0
aF6.0
aF1.0
aF1.0
aF3.0
asS'sean_kilpatrick'
p77
(lp78
F29.0
aF2.0
aF44.0
aF114.0
aF39.0
aF9.258000000000001
aF270.0
aF123.0
aF12.832
aF67.0
aF60.0
aF18.283
aF12.0
aF37.0
aF-146.0
aF345.0
aF56.0
aF12.0
aF31.0
asS'gerald_green'
p79
(lp80
F56.0
aF19.0
aF138.0
aF260.0
aF84.0
aF18.309000000000005
aF587.0
aF230.0
aF23.278
aF92.0
aF72.0
aF29.697
aF25.0
aF123.0
aF43.0
aF616.0
aF163.0
aF38.0
aF46.0
asS'zach_randolph'
p81
(lp82
F142.0
aF13.0
aF350.0
aF26.0
aF6.0
aF5.0
aF907.0
aF431.0
aF32.90700000000001
aF216.0
aF172.0
aF43.458
aF179.0
aF146.0
aF-11.0
aF1040.0
aF529.0
aF43.0
aF105.0
asS'terrence_ross'
p83
(lp84
F56.0
aF25.0
aF164.0
aF339.0
aF131.0
aF25.945
aF626.0
aF270.0
aF30.264000000000006
aF62.0
aF49.0
aF21.668
aF21.0
aF120.0
aF241.0
aF720.0
aF185.0
aF54.0
aF46.0
asS'jordan_mickey'
p85
(lp86
F1.0
aF11.0
aF7.0
aF0.0
aF0.0
aF0.0
aF22.0
aF8.0
aF4.7
aF10.0
aF5.0
aF3.5
aF6.0
aF5.0
aF6.0
aF21.0
aF13.0
aF0.0
aF1.0
asS'devyn_marble'
p87
(lp88
F12.0
aF1.0
aF32.0
aF32.0
aF8.0
aF2.566
aF71.0
aF21.0
aF6.094999999999999
aF24.0
aF10.0
aF3.5
aF6.0
aF25.0
aF-13.0
aF60.0
aF38.0
aF13.0
aF7.0
asS'eric_gordon'
p89
(lp90
F121.0
aF14.0
aF89.0
aF294.0
aF113.0
aF16.942000000000004
aF552.0
aF231.0
aF18.556000000000004
aF125.0
aF111.0
aF30.282
aF10.0
aF98.0
aF-73.0
aF686.0
aF99.0
aF43.0
aF73.0
asS'andrew_wiggins'
p91
(lp92
F164.0
aF46.0
aF186.0
aF190.0
aF57.0
aF19.725999999999996
aF1294.0
aF594.0
aF37.011999999999986
aF565.0
aF430.0
aF59.59399999999997
aF106.0
aF165.0
aF-68.0
aF1675.0
aF292.0
aF78.0
aF182.0
asS'kostas_papanikolaou'
p93
(lp94
F16.0
aF5.0
aF32.0
aF32.0
aF10.0
aF4.417
aF66.0
aF24.0
aF6.037
aF14.0
aF9.0
aF3.5
aF8.0
aF24.0
aF-10.0
aF67.0
aF40.0
aF13.0
aF21.0
asS'javale_mcgee'
p95
(lp96
F3.0
aF26.0
aF80.0
aF1.0
aF0.0
aF0.0
aF134.0
aF77.0
aF17.282999999999998
aF36.0
aF18.0
aF7.75
aF53.0
aF49.0
aF-54.0
aF172.0
aF133.0
aF5.0
aF21.0
asS'nene'
p97
(lp98
F97.0
aF26.0
aF207.0
aF3.0
aF0.0
aF0.0
aF384.0
aF209.0
aF31.008999999999993
aF185.0
aF107.0
aF26.831000000000003
aF52.0
aF156.0
aF30.0
aF525.0
aF259.0
aF54.0
aF76.0
asS'jodie_meeks'
p99
(lp100
F3.0
aF0.0
aF4.0
aF9.0
aF4.0
aF0.444
aF20.0
aF7.0
aF0.65
aF4.0
aF4.0
aF1.0
aF1.0
aF2.0
aF9.0
aF22.0
aF5.0
aF0.0
aF1.0
asS'bryce_dejean-jones'
p101
(lp102
F15.0
aF2.0
aF40.0
aF32.0
aF12.0
aF4.899000000000001
aF69.0
aF28.0
aF4.971
aF21.0
aF11.0
aF4.167
aF8.0
aF17.0
aF-39.0
aF79.0
aF48.0
aF10.0
aF11.0
asS'anderson_varejao'
p103
(lp104
F35.0
aF10.0
aF104.0
aF1.0
aF0.0
aF0.0
aF124.0
aF53.0
aF18.541999999999994
aF50.0
aF32.0
aF15.5
aF37.0
aF70.0
aF24.0
aF138.0
aF141.0
aF16.0
aF22.0
asS'nazr_mohammed'
p105
(lp106
F0.0
aF0.0
aF3.0
aF0.0
aF0.0
aF0.0
aF5.0
aF3.0
aF2.0
aF2.0
aF2.0
aF1.0
aF1.0
aF4.0
aF-3.0
aF8.0
aF4.0
aF0.0
aF3.0
asS'cliff_alexander'
p107
(lp108
F0.0
aF2.0
aF4.0
aF0.0
aF0.0
aF0.0
aF10.0
aF5.0
aF2.5
aF0.0
aF0.0
aF0.0
aF2.0
aF1.0
aF-13.0
aF10.0
aF6.0
aF1.0
aF1.0
asS'chris_paul'
p109
(lp110
F738.0
aF13.0
aF271.0
aF329.0
aF122.0
aF25.763
aF1114.0
aF515.0
aF33.577000000000005
aF328.0
aF294.0
aF65.04799999999999
aF39.0
aF185.0
aF555.0
aF1446.0
aF310.0
aF152.0
aF194.0
asS'jeremy_lin'
p111
(lp112
F235.0
aF42.0
aF211.0
aF226.0
aF76.0
aF27.03299999999999
aF728.0
aF300.0
aF31.095000000000002
aF292.0
aF238.0
aF50.897999999999996
aF42.0
aF165.0
aF86.0
aF914.0
aF253.0
aF58.0
aF150.0
asS'cristiano_felicio'
p113
(lp114
F26.0
aF13.0
aF72.0
aF4.0
aF0.0
aF0.0
aF72.0
aF40.0
aF11.134
aF35.0
aF25.0
aF10.167
aF30.0
aF31.0
aF53.0
aF105.0
aF102.0
aF6.0
aF13.0
asS'chris_bosh'
p115
(lp116
F128.0
aF34.0
aF342.0
aF222.0
aF81.0
aF20.356999999999996
aF767.0
aF358.0
aF24.828999999999997
aF268.0
aF213.0
aF36.004
aF48.0
aF101.0
aF29.0
aF1010.0
aF390.0
aF36.0
aF78.0
asS'tyreke_evans'
p117
(lp118
F164.0
aF8.0
aF109.0
aF85.0
aF33.0
aF8.304
aF314.0
aF136.0
aF9.909
aF93.0
aF74.0
aF16.950000000000003
aF20.0
aF66.0
aF-14.0
aF379.0
aF129.0
aF32.0
aF73.0
asS'ersan_ilyasova'
p119
(lp120
F67.0
aF33.0
aF259.0
aF259.0
aF96.0
aF26.029999999999994
aF661.0
aF280.0
aF30.90799999999999
aF154.0
aF111.0
aF30.36
aF144.0
aF171.0
aF-141.0
aF767.0
aF403.0
aF52.0
aF71.0
asS'lou_amundson'
p121
(lp122
F12.0
aF7.0
aF26.0
aF0.0
aF0.0
aF0.0
aF53.0
aF19.0
aF7.016000000000001
aF27.0
aF14.0
aF6.333
aF23.0
aF44.0
aF-47.0
aF52.0
aF49.0
aF6.0
aF15.0
asS'jameer_nelson'
p123
(lp124
F190.0
aF5.0
aF96.0
aF144.0
aF43.0
aF8.721
aF307.0
aF113.0
aF12.824
aF35.0
aF30.0
aF9.667
aF19.0
aF100.0
aF-133.0
aF299.0
aF115.0
aF25.0
aF66.0
asS'serge_ibaka'
p125
(lp126
F66.0
aF148.0
aF392.0
aF184.0
aF60.0
aF20.666
aF869.0
aF416.0
aF37.081
aF121.0
aF91.0
aF33.35
aF141.0
aF211.0
aF532.0
aF983.0
aF533.0
aF38.0
aF108.0
asS'joakim_noah'
p127
(lp128
F110.0
aF29.0
aF168.0
aF1.0
aF0.0
aF0.0
aF133.0
aF51.0
aF9.745
aF45.0
aF22.0
aF8.0
aF87.0
aF77.0
aF-34.0
aF124.0
aF255.0
aF18.0
aF52.0
asS'jonathon_simmons'
p129
(lp130
F58.0
aF5.0
aF80.0
aF47.0
aF18.0
aF11.833
aF242.0
aF122.0
aF27.547
aF92.0
aF69.0
aF20.146
aF16.0
aF103.0
aF92.0
aF331.0
aF96.0
aF24.0
aF53.0
asS'carmelo_anthony'
p131
(lp132
F299.0
aF38.0
aF458.0
aF310.0
aF105.0
aF23.72799999999999
aF1307.0
aF567.0
aF31.340999999999987
aF403.0
aF334.0
aF57.01599999999999
aF98.0
aF180.0
aF-43.0
aF1573.0
aF556.0
aF62.0
aF176.0
asS'jimmer_fredette'
p133
(lp134
F1.0
aF0.0
aF0.0
aF2.0
aF1.0
aF1.0
aF5.0
aF2.0
aF1.333
aF5.0
aF4.0
aF0.8
aF0.0
aF2.0
aF-25.0
aF9.0
aF0.0
aF1.0
aF2.0
asS'norman_powell'
p135
(lp136
F47.0
aF10.0
aF95.0
aF89.0
aF36.0
aF9.167
aF229.0
aF97.0
aF14.783000000000001
aF53.0
aF43.0
aF11.370000000000001
aF16.0
aF59.0
aF66.0
aF273.0
aF111.0
aF29.0
aF32.0
asS'wayne_ellington'
p137
(lp138
F83.0
aF5.0
aF154.0
aF268.0
aF96.0
aF23.689999999999994
aF561.0
aF218.0
aF28.384999999999994
aF63.0
aF54.0
aF23.667
aF20.0
aF82.0
aF-322.0
aF586.0
aF174.0
aF48.0
aF45.0
asS'michael_carter-williams'
p139
(lp140
F281.0
aF41.0
aF228.0
aF55.0
aF15.0
aF7.934
aF555.0
aF251.0
aF23.861000000000008
aF162.0
aF106.0
aF27.339
aF48.0
aF162.0
aF-130.0
aF623.0
aF276.0
aF80.0
aF153.0
asS'dewayne_dedmon'
p141
(lp142
F13.0
aF46.0
aF161.0
aF0.0
aF0.0
aF0.0
aF177.0
aF99.0
aF25.894
aF76.0
aF57.0
aF18.784000000000002
aF67.0
aF109.0
aF-36.0
aF255.0
aF228.0
aF22.0
aF32.0
asS'ryan_j_anderson'
p143
(lp144
F73.0
aF25.0
aF265.0
aF358.0
aF131.0
aF22.61599999999999
aF929.0
aF397.0
aF26.746000000000002
aF228.0
aF199.0
aF50.334999999999994
aF131.0
aF109.0
aF31.0
aF1124.0
aF396.0
aF38.0
aF90.0
asS'axel_toupane'
p145
(lp146
F15.0
aF6.0
aF23.0
aF40.0
aF13.0
aF5.5
aF70.0
aF25.0
aF6.746
aF17.0
aF13.0
aF5.333
aF8.0
aF40.0
aF-17.0
aF76.0
aF31.0
aF7.0
aF6.0
asS'nikola_jokic'
p147
(lp148
F189.0
aF50.0
aF379.0
aF84.0
aF28.0
aF17.582
aF600.0
aF307.0
aF40.33
aF190.0
aF154.0
aF41.337999999999994
aF181.0
aF208.0
aF93.0
aF796.0
aF560.0
aF79.0
aF104.0
asS'rudy_gay'
p149
(lp150
F120.0
aF51.0
aF353.0
aF215.0
aF74.0
aF21.783999999999995
aF1007.0
aF466.0
aF32.53999999999999
aF254.0
aF198.0
aF48.461999999999996
aF103.0
aF184.0
aF-82.0
aF1204.0
aF456.0
aF100.0
aF139.0
asS'jorge_gutierrez'
p151
(lp152
F17.0
aF0.0
aF7.0
aF2.0
aF0.0
aF0.0
aF11.0
aF6.0
aF4.333
aF11.0
aF10.0
aF3.5
aF0.0
aF3.0
aF8.0
aF22.0
aF7.0
aF3.0
aF6.0
asS'kirk_hinrich'
p153
(lp154
F73.0
aF2.0
aF62.0
aF62.0
aF24.0
aF12.117
aF129.0
aF49.0
aF15.538
aF16.0
aF15.0
aF4.833
aF8.0
aF64.0
aF14.0
aF137.0
aF70.0
aF15.0
aF30.0
asS'aaron_gordon'
p155
(lp156
F128.0
aF55.0
aF353.0
aF142.0
aF42.0
aF18.663999999999994
aF579.0
aF274.0
aF34.991
aF193.0
aF129.0
aF33.92300000000001
aF154.0
aF153.0
aF-73.0
aF719.0
aF507.0
aF59.0
aF66.0
asS'drew_gooden'
p157
(lp158
F13.0
aF11.0
aF57.0
aF41.0
aF7.0
aF2.9160000000000004
aF103.0
aF33.0
aF6.914000000000001
aF14.0
aF9.0
aF5.0
aF28.0
aF40.0
aF-83.0
aF82.0
aF85.0
aF8.0
aF13.0
asS'jahlil_okafor'
p159
(lp160
F65.0
aF61.0
aF251.0
aF6.0
aF1.0
aF1.0
aF781.0
aF397.0
aF27.181999999999995
aF194.0
aF133.0
aF30.333000000000006
aF122.0
aF140.0
aF-496.0
aF928.0
aF373.0
aF22.0
aF124.0
asS'tibor_pleiss'
p161
(lp162
F2.0
aF2.0
aF9.0
aF2.0
aF0.0
aF0.0
aF25.0
aF11.0
aF3.595
aF2.0
aF2.0
aF1.0
aF6.0
aF19.0
aF-15.0
aF24.0
aF15.0
aF1.0
aF8.0
asS'al_jefferson'
p163
(lp164
F70.0
aF41.0
aF244.0
aF0.0
aF0.0
aF0.0
aF505.0
aF245.0
aF21.150000000000002
aF111.0
aF72.0
aF21.988
aF57.0
aF117.0
aF48.0
aF562.0
aF301.0
aF30.0
aF34.0
asS'james_johnson'
p165
(lp166
F67.0
aF33.0
aF98.0
aF66.0
aF20.0
aF10.4
aF240.0
aF114.0
aF23.785000000000004
aF68.0
aF39.0
aF14.517
aF28.0
aF84.0
aF8.0
aF287.0
aF126.0
aF29.0
aF54.0
asS'lamar_patterson'
p167
(lp168
F39.0
aF2.0
aF46.0
aF49.0
aF12.0
aF5.133000000000001
aF80.0
aF28.0
aF7.497999999999999
aF22.0
aF16.0
aF6.667
aF4.0
aF45.0
aF31.0
aF84.0
aF50.0
aF9.0
aF23.0
asS'jason_smith'
p169
(lp170
F62.0
aF65.0
aF166.0
aF16.0
aF4.0
aF3.0
aF503.0
aF244.0
aF37.040000000000006
aF67.0
aF54.0
aF22.5
aF53.0
aF163.0
aF-35.0
aF546.0
aF219.0
aF33.0
aF57.0
asS'jordan_clarkson'
p171
(lp172
F192.0
aF7.0
aF220.0
aF320.0
aF111.0
aF24.285000000000004
aF1098.0
aF475.0
aF33.928
aF204.0
aF164.0
aF46.077
aF93.0
aF168.0
aF-627.0
aF1225.0
aF313.0
aF88.0
aF135.0
asS'justise_winslow'
p173
(lp174
F118.0
aF26.0
aF322.0
aF116.0
aF32.0
aF18.832
aF462.0
aF195.0
aF31.661999999999985
aF117.0
aF80.0
aF30.101000000000006
aF81.0
aF184.0
aF111.0
aF502.0
aF403.0
aF68.0
aF95.0
asS'tyler_ennis'
p175
(lp176
F95.0
aF1.0
aF62.0
aF39.0
aF13.0
aF8.584
aF187.0
aF84.0
aF17.964000000000002
aF34.0
aF25.0
aF11.417
aF13.0
aF64.0
aF-70.0
aF206.0
aF75.0
aF25.0
aF46.0
asS'elliot_williams'
p177
(lp178
F4.0
aF0.0
aF3.0
aF4.0
aF1.0
aF1.0
aF10.0
aF2.0
aF0.666
aF4.0
aF3.0
aF1.5
aF1.0
aF2.0
aF-3.0
aF8.0
aF4.0
aF0.0
aF1.0
asS'shabazz_muhammad'
p179
(lp180
F52.0
aF7.0
aF167.0
aF152.0
aF44.0
aF18.385
aF681.0
aF317.0
aF36.768
aF242.0
aF185.0
aF42.91499999999999
aF100.0
aF94.0
aF-266.0
aF863.0
aF267.0
aF24.0
aF70.0
asS'justin_anderson'
p181
(lp182
F29.0
aF25.0
aF114.0
aF83.0
aF22.0
aF9.526
aF175.0
aF71.0
aF18.265
aF55.0
aF44.0
aF17.5
aF18.0
aF45.0
aF7.0
aF208.0
aF132.0
aF19.0
aF24.0
asS'charlie_villanueva'
p183
(lp184
F24.0
aF15.0
aF128.0
aF172.0
aF47.0
aF13.128
aF327.0
aF125.0
aF20.317
aF24.0
aF22.0
aF9.167
aF24.0
aF71.0
aF-88.0
aF319.0
aF152.0
aF18.0
aF31.0
asS'bobby_portis'
p185
(lp186
F52.0
aF22.0
aF214.0
aF52.0
aF16.0
aF10.334
aF436.0
aF186.0
aF24.36099999999999
aF66.0
aF48.0
aF20.834
aF123.0
aF100.0
aF-178.0
aF436.0
aF337.0
aF25.0
aF54.0
asS'josh_mcroberts'
p187
(lp188
F81.0
aF7.0
aF83.0
aF49.0
aF12.0
aF3.633
aF148.0
aF55.0
aF11.016
aF40.0
aF28.0
aF10.583
aF22.0
aF68.0
aF5.0
aF150.0
aF105.0
aF18.0
aF30.0
asS'jeremy_lamb'
p189
(lp190
F77.0
aF30.0
aF208.0
aF181.0
aF56.0
aF17.684000000000005
aF510.0
aF230.0
aF28.144000000000002
aF88.0
aF64.0
aF25.708
aF44.0
aF105.0
aF153.0
aF580.0
aF252.0
aF42.0
aF50.0
asS'solomon_hill'
p191
(lp192
F57.0
aF11.0
aF127.0
aF74.0
aF24.0
aF7.982
aF208.0
aF93.0
aF18.935
aF42.0
aF36.0
aF15.75
aF39.0
aF68.0
aF45.0
aF246.0
aF166.0
aF37.0
aF33.0
asS'kemba_walker'
p193
(lp194
F421.0
aF39.0
aF301.0
aF490.0
aF182.0
aF29.054999999999993
aF1331.0
aF568.0
aF34.02399999999999
aF438.0
aF371.0
aF64.463
aF56.0
aF111.0
aF237.0
aF1689.0
aF357.0
aF126.0
aF171.0
asS'rasual_butler'
p195
(lp196
F24.0
aF23.0
aF53.0
aF49.0
aF15.0
aF8.917
aF104.0
aF49.0
aF13.885
aF16.0
aF11.0
aF5.833
aF3.0
aF11.0
aF80.0
aF124.0
aF56.0
aF13.0
aF8.0
asS'anthony_bennett'
p197
(lp198
F0.0
aF0.0
aF17.0
aF14.0
aF3.0
aF2.333
aF27.0
aF8.0
aF4.4830000000000005
aF10.0
aF9.0
aF3.75
aF6.0
aF8.0
aF-30.0
aF28.0
aF23.0
aF5.0
aF4.0
asS'pj_tucker'
p199
(lp200
F177.0
aF20.0
aF347.0
aF206.0
aF68.0
aF24.281
aF582.0
aF239.0
aF31.404999999999994
aF142.0
aF106.0
aF35.208
aF165.0
aF202.0
aF-357.0
aF652.0
aF512.0
aF106.0
aF111.0
asS'roy_hibbert'
p201
(lp202
F95.0
aF110.0
aF266.0
aF2.0
aF0.0
aF0.0
aF411.0
aF182.0
aF35.715
aF145.0
aF117.0
aF38.766999999999996
aF132.0
aF252.0
aF-686.0
aF481.0
aF398.0
aF32.0
aF76.0
asS'shelvin_mack'
p203
(lp204
F187.0
aF3.0
aF115.0
aF125.0
aF39.0
aF11.532
aF415.0
aF182.0
aF20.593
aF61.0
aF45.0
aF15.751
aF13.0
aF72.0
aF97.0
aF448.0
aF128.0
aF34.0
aF95.0
asS'christapher_johnson'
p205
(lp206
F45.0
aF20.0
aF105.0
aF99.0
aF27.0
aF13.1
aF194.0
aF72.0
aF21.390000000000004
aF42.0
aF34.0
aF16.75
aF27.0
aF100.0
aF2.0
aF205.0
aF132.0
aF32.0
aF40.0
asS'vince_carter'
p207
(lp208
F56.0
aF16.0
aF115.0
aF169.0
aF59.0
aF15.949
aF343.0
aF133.0
aF19.342999999999996
aF84.0
aF70.0
aF26.147
aF31.0
aF101.0
aF-35.0
aF395.0
aF146.0
aF38.0
aF35.0
asS'mike_dunleavy'
p209
(lp210
F39.0
aF10.0
aF75.0
aF99.0
aF39.0
aF11.197999999999999
aF188.0
aF77.0
aF11.487
aF37.0
aF29.0
aF12.5
aF8.0
aF66.0
aF-69.0
aF222.0
aF83.0
aF14.0
aF26.0
asS'andrew_bogut'
p211
(lp212
F162.0
aF114.0
aF371.0
aF1.0
aF1.0
aF1.0
aF279.0
aF175.0
aF42.228999999999985
aF50.0
aF24.0
aF9.0
aF121.0
aF221.0
aF406.0
aF375.0
aF492.0
aF33.0
aF83.0
asS'jared_cunningham'
p213
(lp214
F20.0
aF2.0
aF35.0
aF39.0
aF12.0
aF5.082000000000001
aF105.0
aF36.0
aF8.199000000000002
aF55.0
aF36.0
aF9.75
aF3.0
aF41.0
aF-43.0
aF120.0
aF38.0
aF14.0
aF21.0
asS'eric_bledsoe'
p215
(lp216
F190.0
aF19.0
aF107.0
aF129.0
aF48.0
aF10.472000000000001
aF492.0
aF223.0
aF14.070000000000002
aF172.0
aF138.0
aF22.407999999999994
aF18.0
aF75.0
aF-49.0
aF632.0
aF125.0
aF63.0
aF110.0
asS'alec_burks'
p217
(lp218
F63.0
aF4.0
aF93.0
aF79.0
aF32.0
aF11.732000000000001
aF334.0
aF137.0
aF12.478000000000002
aF141.0
aF106.0
aF21.858
aF16.0
aF71.0
aF-13.0
aF412.0
aF109.0
aF18.0
aF51.0
asS'brandon_jennings'
p219
(lp220
F170.0
aF7.0
aF80.0
aF155.0
aF51.0
aF11.863
aF304.0
aF112.0
aF15.722
aF78.0
aF57.0
aF15.972
aF16.0
aF57.0
aF12.0
aF332.0
aF96.0
aF29.0
aF57.0
asS'donald_sloan'
p221
(lp222
F268.0
aF4.0
aF156.0
aF99.0
aF38.0
aF13.962
aF350.0
aF154.0
aF24.593999999999987
aF104.0
aF78.0
aF22.2
aF17.0
aF73.0
aF-125.0
aF424.0
aF173.0
aF32.0
aF80.0
asS'jabari_parker'
p223
(lp224
F130.0
aF29.0
aF272.0
aF35.0
aF9.0
aF6.5
aF899.0
aF443.0
aF37.06700000000001
aF228.0
aF175.0
aF47.535
aF123.0
aF154.0
aF-194.0
aF1070.0
aF395.0
aF69.0
aF116.0
asS'sergey_karasev'
p225
(lp226
F35.0
aF2.0
aF50.0
aF37.0
aF11.0
aF6.309
aF74.0
aF30.0
aF10.645
aF28.0
aF26.0
aF8.357
aF8.0
aF27.0
aF-6.0
aF97.0
aF58.0
aF6.0
aF22.0
asS'doug_mcdermott'
p227
(lp228
F59.0
aF6.0
aF158.0
aF259.0
aF110.0
aF28.052
aF644.0
aF291.0
aF33.31700000000001
aF84.0
aF72.0
aF30.842
aF37.0
aF127.0
aF-65.0
aF764.0
aF195.0
aF14.0
aF53.0
asS'rodney_stuckey'
p229
(lp230
F142.0
aF8.0
aF137.0
aF83.0
aF20.0
aF9.198
aF443.0
aF183.0
aF22.896000000000004
aF158.0
aF131.0
aF34.962
aF19.0
aF77.0
aF10.0
aF517.0
aF156.0
aF43.0
aF76.0
asS'will_barton'
p231
(lp232
F203.0
aF39.0
aF417.0
aF325.0
aF112.0
aF24.379999999999992
aF983.0
aF425.0
aF34.258
aF268.0
aF216.0
aF51.65
aF59.0
aF147.0
aF-131.0
aF1178.0
aF476.0
aF71.0
aF139.0
asS'jusuf_nurkic'
p233
(lp234
F40.0
aF44.0
aF110.0
aF3.0
aF0.0
aF0.0
aF242.0
aF101.0
aF12.475999999999999
aF99.0
aF61.0
aF16.806
aF65.0
aF91.0
aF-7.0
aF263.0
aF175.0
aF24.0
aF55.0
asS'danilo_gallinari'
p235
(lp236
F135.0
aF19.0
aF229.0
aF239.0
aF87.0
aF18.604999999999997
aF700.0
aF287.0
aF21.562000000000005
aF432.0
aF375.0
aF46.285
aF52.0
aF87.0
aF-99.0
aF1036.0
aF281.0
aF42.0
aF77.0
asS'matt_bonner'
p237
(lp238
F9.0
aF1.0
aF24.0
aF34.0
aF15.0
aF8.333
aF57.0
aF29.0
aF10.633000000000001
aF4.0
aF3.0
aF1.5
aF3.0
aF16.0
aF63.0
aF76.0
aF27.0
aF6.0
aF3.0
asS'lorenzo_brown'
p239
(lp240
F11.0
aF1.0
aF7.0
aF8.0
aF1.0
aF0.333
aF25.0
aF8.0
aF2.383
aF4.0
aF3.0
aF2.0
aF0.0
aF4.0
aF-30.0
aF20.0
aF7.0
aF3.0
aF9.0
asS'johnny_obryant'
p241
(lp242
F32.0
aF8.0
aF111.0
aF1.0
aF1.0
aF1.0
aF209.0
aF86.0
aF25.216999999999995
aF40.0
aF27.0
aF9.683
aF65.0
aF100.0
aF-131.0
aF200.0
aF176.0
aF18.0
aF31.0
asS'mario_chalmers'
p243
(lp244
F230.0
aF13.0
aF133.0
aF149.0
aF46.0
aF15.587
aF444.0
aF182.0
aF24.014999999999997
aF262.0
aF218.0
aF43.528999999999996
aF24.0
aF181.0
aF73.0
aF628.0
aF157.0
aF88.0
aF110.0
asS'jeff_green'
p245
(lp246
F138.0
aF40.0
aF258.0
aF213.0
aF67.0
aF20.983999999999995
aF824.0
aF354.0
aF32.669
aF220.0
aF164.0
aF42.379999999999995
aF74.0
aF164.0
aF-41.0
aF939.0
aF332.0
aF58.0
aF93.0
asS'allen_crabbe'
p247
(lp248
F99.0
aF16.0
aF189.0
aF285.0
aF112.0
aF31.529
aF678.0
aF311.0
aF35.49799999999999
aF113.0
aF98.0
aF35.058
aF27.0
aF192.0
aF42.0
aF832.0
aF216.0
aF63.0
aF64.0
asS'jj_redick'
p249
(lp250
F106.0
aF5.0
aF129.0
aF421.0
aF200.0
aF35.87699999999999
aF880.0
aF422.0
aF35.51400000000002
aF205.0
aF182.0
aF47.083999999999996
aF10.0
aF135.0
aF510.0
aF1226.0
aF139.0
aF42.0
aF78.0
asS'shabazz_napier'
p251
(lp252
F97.0
aF1.0
aF46.0
aF104.0
aF34.0
aF13.222999999999999
aF201.0
aF68.0
aF16.274
aF45.0
aF33.0
aF11.625
aF9.0
aF38.0
aF-51.0
aF203.0
aF55.0
aF23.0
aF46.0
asS'draymond_green'
p253
(lp254
F598.0
aF113.0
aF635.0
aF258.0
aF100.0
aF28.58700000000001
aF819.0
aF401.0
aF40.31
aF329.0
aF229.0
aF48.727000000000004
aF134.0
aF240.0
aF1080.0
aF1131.0
aF769.0
aF119.0
aF259.0
asS'emmanuel_mudiay'
p255
(lp256
F372.0
aF35.0
aF200.0
aF232.0
aF74.0
aF17.752000000000002
aF905.0
aF329.0
aF23.957999999999995
aF209.0
aF140.0
aF36.87599999999999
aF32.0
aF141.0
aF-117.0
aF872.0
aF232.0
aF65.0
aF217.0
asS'jamychal_green'
p257
(lp258
F67.0
aF33.0
aF234.0
aF45.0
aF15.0
aF12.2
aF495.0
aF230.0
aF36.294999999999995
aF137.0
aF103.0
aF35.333
aF139.0
aF189.0
aF-44.0
aF578.0
aF373.0
aF46.0
aF83.0
asS'dwight_powell'
p259
(lp260
F44.0
aF24.0
aF189.0
aF16.0
aF2.0
aF0.667
aF296.0
aF146.0
aF30.909000000000006
aF142.0
aF105.0
aF27.704000000000004
aF84.0
aF118.0
aF-80.0
aF399.0
aF273.0
aF36.0
aF40.0
asS'lamarcus_aldridge'
p261
(lp262
F110.0
aF81.0
aF456.0
aF16.0
aF0.0
aF0.0
aF1045.0
aF536.0
aF36.98100000000001
aF302.0
aF259.0
aF55.68999999999999
aF176.0
aF151.0
aF509.0
aF1331.0
aF632.0
aF38.0
aF99.0
asS'john_jenkins'
p263
(lp264
F35.0
aF1.0
aF49.0
aF51.0
aF16.0
aF8.916
aF160.0
aF71.0
aF15.915000000000001
aF24.0
aF20.0
aF11.0
aF8.0
aF22.0
aF-63.0
aF178.0
aF57.0
aF8.0
aF27.0
asS'bryce_cotton'
p265
(lp266
F3.0
aF0.0
aF0.0
aF3.0
aF0.0
aF0.0
aF10.0
aF4.0
aF2.667
aF0.0
aF0.0
aF0.0
aF0.0
aF2.0
aF-24.0
aF8.0
aF0.0
aF3.0
aF5.0
asS'robin_lopez'
p267
(lp268
F114.0
aF129.0
aF334.0
aF1.0
aF0.0
aF0.0
aF662.0
aF357.0
aF42.677000000000014
aF161.0
aF128.0
aF43.31400000000001
aF268.0
aF182.0
aF-100.0
aF842.0
aF602.0
aF16.0
aF133.0
asS'isaiah_canaan'
p269
(lp270
F137.0
aF12.0
aF154.0
aF485.0
aF176.0
aF25.967999999999986
aF722.0
aF260.0
aF26.040999999999983
aF180.0
aF150.0
aF45.84400000000001
aF20.0
aF133.0
aF-484.0
aF846.0
aF174.0
aF56.0
aF91.0
asS'devin_booker'
p271
(lp272
F200.0
aF20.0
aF160.0
aF289.0
aF99.0
aF23.885000000000005
aF867.0
aF367.0
aF31.158000000000012
aF256.0
aF215.0
aF42.07599999999999
aF27.0
aF225.0
aF-375.0
aF1048.0
aF187.0
aF44.0
aF160.0
asS'kristaps_porzingis'
p273
(lp274
F94.0
aF134.0
aF394.0
aF243.0
aF81.0
aF21.163000000000004
aF886.0
aF373.0
aF29.743000000000002
aF240.0
aF201.0
aF49.85
aF132.0
aF205.0
aF13.0
aF1028.0
aF526.0
aF53.0
aF121.0
asS'courtney_lee'
p275
(lp276
F136.0
aF28.0
aF176.0
aF217.0
aF82.0
aF27.865
aF639.0
aF290.0
aF35.79600000000002
aF118.0
aF99.0
aF39.94
aF29.0
aF134.0
aF148.0
aF761.0
aF205.0
aF85.0
aF72.0
asS'andre_drummond'
p277
(lp278
F67.0
aF112.0
aF803.0
aF6.0
aF2.0
aF2.0
aF1060.0
aF552.0
aF42.98600000000001
aF586.0
aF208.0
aF27.759999999999998
aF395.0
aF245.0
aF125.0
aF1314.0
aF1198.0
aF119.0
aF155.0
asS'henry_sims'
p279
(lp280
F9.0
aF14.0
aF51.0
aF0.0
aF0.0
aF0.0
aF77.0
aF33.0
aF5.493
aF30.0
aF25.0
aF7.667
aF21.0
aF37.0
aF-94.0
aF91.0
aF72.0
aF9.0
aF12.0
asS'walter_tavares'
p281
(lp282
F3.0
aF6.0
aF14.0
aF0.0
aF0.0
aF0.0
aF19.0
aF11.0
aF3.7670000000000003
aF8.0
aF3.0
aF1.5
aF7.0
aF8.0
aF-10.0
aF25.0
aF21.0
aF1.0
aF5.0
asS'bismack_biyombo'
p283
(lp284
F29.0
aF133.0
aF473.0
aF1.0
aF0.0
aF0.0
aF288.0
aF156.0
aF42.516
aF226.0
aF142.0
aF36.906000000000006
aF182.0
aF225.0
aF86.0
aF454.0
aF655.0
aF19.0
aF71.0
asS'ish_smith'
p285
(lp286
F502.0
aF24.0
aF262.0
aF170.0
aF56.0
aF19.929
aF967.0
aF397.0
aF30.829
aF176.0
aF122.0
aF34.929
aF43.0
aF133.0
aF-348.0
aF972.0
aF305.0
aF88.0
aF175.0
asS'jae_crowder'
p287
(lp288
F135.0
aF35.0
aF303.0
aF363.0
aF122.0
aF24.05099999999999
aF813.0
aF360.0
aF32.24999999999999
aF239.0
aF196.0
aF46.976
aF70.0
aF198.0
aF216.0
aF1038.0
aF373.0
aF126.0
aF83.0
asS'jarell_martin'
p289
(lp290
F15.0
aF7.0
aF47.0
aF2.0
aF0.0
aF0.0
aF116.0
aF54.0
aF12.937
aF62.0
aF45.0
aF10.391000000000002
aF39.0
aF58.0
aF-39.0
aF153.0
aF86.0
aF8.0
aF19.0
asS'dahntay_jones'
p291
(lp292
S'2'
p293
ag293
aS'4'
p294
ag293
aS'1'
p295
aS'0.5'
p296
aS'14'
p297
aS'6'
p298
aS'0.429'
p299
aS'0'
p300
ag300
ag300
ag295
ag298
aS'-1'
p301
aS'13'
p302
aS'5'
p303
ag295
ag300
asS'julius_randle'
p304
(lp305
F144.0
aF29.0
aF657.0
aF36.0
aF10.0
aF7.833
aF835.0
aF358.0
aF33.058
aF270.0
aF193.0
aF47.344000000000015
aF172.0
aF242.0
aF-683.0
aF919.0
aF829.0
aF53.0
aF149.0
asS'thaddeus_young'
p306
(lp307
F136.0
aF37.0
aF484.0
aF30.0
aF7.0
aF4.5
aF963.0
aF495.0
aF37.700999999999986
aF163.0
aF105.0
aF32.017
aF176.0
aF182.0
aF-235.0
aF1102.0
aF660.0
aF112.0
aF136.0
asS'meyers_leonard'
p308
(lp309
F92.0
aF18.0
aF263.0
aF228.0
aF86.0
aF22.448
aF435.0
aF195.0
aF26.399000000000004
aF46.0
aF35.0
aF13.9
aF51.0
aF183.0
aF100.0
aF511.0
aF314.0
aF8.0
aF77.0
asS'dirk_nowitzki'
p310
(lp311
F132.0
aF52.0
aF437.0
aF342.0
aF126.0
aF27.015999999999995
aF1112.0
aF498.0
aF34.01399999999999
aF280.0
aF250.0
aF53.67799999999998
aF52.0
aF161.0
aF255.0
aF1372.0
aF489.0
aF52.0
aF84.0
asS'kj_mcdaniels'
p312
(lp313
F10.0
aF6.0
aF26.0
aF25.0
aF7.0
aF4.583
aF72.0
aF29.0
aF9.237
aF30.0
aF24.0
aF8.75
aF16.0
aF30.0
aF76.0
aF89.0
aF42.0
aF7.0
aF17.0
asS'george_hill'
p314
(lp315
F259.0
aF17.0
aF240.0
aF314.0
aF128.0
aF28.98299999999999
aF739.0
aF326.0
aF32.17199999999999
aF150.0
aF114.0
aF37.574999999999996
aF58.0
aF149.0
aF97.0
aF894.0
aF298.0
aF83.0
aF101.0
asS'jeremy_evans'
p316
(lp317
F2.0
aF9.0
aF43.0
aF16.0
aF4.0
aF4.0
aF48.0
aF26.0
aF10.167
aF21.0
aF15.0
aF6.084
aF11.0
aF19.0
aF-40.0
aF71.0
aF54.0
aF6.0
aF7.0
asS'blake_griffin'
p318
(lp319
F170.0
aF17.0
aF243.0
aF18.0
aF6.0
aF4.333
aF603.0
aF301.0
aF16.972999999999995
aF194.0
aF141.0
aF25.035
aF51.0
aF95.0
aF180.0
aF749.0
aF294.0
aF28.0
aF83.0
asS'dejuan_blair'
p320
(lp321
F11.0
aF2.0
aF37.0
aF1.0
aF0.0
aF0.0
aF68.0
aF28.0
aF7.083
aF13.0
aF5.0
aF2.333
aF20.0
aF53.0
aF-39.0
aF61.0
aF57.0
aF8.0
aF15.0
asS'damjan_rudez'
p322
(lp323
F11.0
aF1.0
aF15.0
aF50.0
aF17.0
aF5.85
aF62.0
aF25.0
aF7.893
aF8.0
aF8.0
aF4.0
aF5.0
aF33.0
aF-11.0
aF75.0
aF20.0
aF3.0
aF13.0
asS'nik_stauskas'
p324
(lp325
F138.0
aF20.0
aF160.0
aF325.0
aF106.0
aF21.459999999999997
aF545.0
aF210.0
aF25.845999999999997
aF118.0
aF91.0
aF29.491000000000003
aF23.0
aF115.0
aF-406.0
aF617.0
aF183.0
aF44.0
aF94.0
asS'klay_thompson'
p326
(lp327
F166.0
aF49.0
aF271.0
aF650.0
aF276.0
aF32.09700000000001
aF1386.0
aF651.0
aF37.053
aF221.0
aF193.0
aF51.63099999999999
aF35.0
aF152.0
aF846.0
aF1771.0
aF306.0
aF60.0
aF138.0
asS'bradley_beal'
p328
(lp329
F162.0
aF11.0
aF147.0
aF271.0
aF105.0
aF21.477
aF799.0
aF359.0
aF24.532000000000004
aF176.0
aF135.0
aF35.44
aF41.0
aF117.0
aF-24.0
aF958.0
aF188.0
aF54.0
aF112.0
asS'jarrett_jack'
p330
(lp331
F236.0
aF7.0
aF127.0
aF102.0
aF31.0
aF9.499
aF358.0
aF140.0
aF12.234000000000004
aF112.0
aF100.0
aF21.627999999999997
aF9.0
aF77.0
aF-133.0
aF411.0
aF136.0
aF34.0
aF94.0
asS'anthony_morrow'
p332
(lp333
F24.0
aF5.0
aF52.0
aF204.0
aF79.0
aF22.972999999999995
aF333.0
aF136.0
aF25.00999999999999
aF39.0
aF29.0
aF11.167
aF10.0
aF64.0
aF111.0
aF380.0
aF62.0
aF22.0
aF17.0
asS'larry_nance'
p334
(lp335
F44.0
aF23.0
aF211.0
aF10.0
aF1.0
aF1.0
aF300.0
aF158.0
aF30.466000000000008
aF47.0
aF32.0
aF15.5
aF101.0
aF124.0
aF-96.0
aF349.0
aF312.0
aF54.0
aF41.0
asS'oj_mayo'
p336
(lp337
F118.0
aF8.0
aF92.0
aF162.0
aF52.0
aF10.75
aF321.0
aF119.0
aF13.662999999999998
aF40.0
aF31.0
aF10.25
aF13.0
aF126.0
aF-56.0
aF321.0
aF105.0
aF48.0
aF72.0
asS'gordon_hayward'
p338
(lp339
F296.0
aF27.0
aF336.0
aF410.0
aF143.0
aF27.964999999999986
aF1202.0
aF521.0
aF34.902999999999984
aF477.0
aF393.0
aF66.76899999999999
aF61.0
aF183.0
aF94.0
aF1578.0
aF397.0
aF95.0
aF202.0
asS'willie_reed'
p340
(lp341
F10.0
aF30.0
aF73.0
aF0.0
aF0.0
aF0.0
aF133.0
aF76.0
aF20.316000000000003
aF55.0
aF30.0
aF8.925
aF49.0
aF47.0
aF-80.0
aF182.0
aF122.0
aF6.0
aF16.0
asS'paul_pierce'
p342
(lp343
F71.0
aF17.0
aF174.0
aF242.0
aF75.0
aF19.464
aF397.0
aF144.0
aF21.899
aF66.0
aF54.0
aF19.333000000000002
aF12.0
aF129.0
aF55.0
aF417.0
aF186.0
aF33.0
aF58.0
asS'chase_budinger'
p344
(lp345
F64.0
aF10.0
aF107.0
aF86.0
aF24.0
aF13.167
aF239.0
aF104.0
aF26.040000000000003
aF56.0
aF39.0
aF15.434
aF43.0
aF62.0
aF1.0
aF271.0
aF150.0
aF32.0
aF44.0
asS'duje_dukan'
p346
(lp347
g295
ag300
ag293
ag303
ag293
aS'0.4'
p348
aS'10'
p349
ag293
aS'0.2'
p350
ag300
ag300
ag300
ag293
ag293
aS'-8'
p351
ag298
ag294
ag295
ag300
asS'langston_galloway'
p352
(lp353
F207.0
aF22.0
aF245.0
aF224.0
aF77.0
aF23.216000000000005
aF588.0
aF231.0
aF32.25799999999999
aF114.0
aF86.0
aF32.093
aF43.0
aF177.0
aF-103.0
aF625.0
aF288.0
aF77.0
aF61.0
asS'lance_thomas'
p354
(lp355
F53.0
aF7.0
aF97.0
aF109.0
aF44.0
aF19.316000000000003
aF382.0
aF169.0
aF25.003
aF119.0
aF102.0
aF34.598
aF34.0
aF109.0
aF-42.0
aF484.0
aF131.0
aF22.0
aF57.0
asS'kris_humphries'
p356
(lp357
F36.0
aF23.0
aF161.0
aF108.0
aF34.0
aF11.507
aF295.0
aF121.0
aF20.293
aF84.0
aF67.0
aF23.749000000000002
aF57.0
aF94.0
aF-105.0
aF343.0
aF218.0
aF16.0
aF38.0
asS'tyus_jones'
p358
(lp359
F108.0
aF3.0
aF40.0
aF53.0
aF16.0
aF7.417
aF156.0
aF56.0
aF12.83
aF39.0
aF28.0
aF12.834
aF7.0
aF33.0
aF-133.0
aF156.0
aF47.0
aF31.0
aF33.0
asS'pablo_prigioni'
p360
(lp361
F130.0
aF1.0
aF76.0
aF95.0
aF28.0
aF15.367
aF147.0
aF55.0
aF21.662999999999997
aF8.0
aF7.0
aF3.5
aF38.0
aF82.0
aF-67.0
aF145.0
aF114.0
aF53.0
aF49.0
asS'lucas_nogueira'
p362
(lp363
F7.0
aF12.0
aF28.0
aF3.0
aF1.0
aF1.0
aF44.0
aF28.0
aF12.528
aF15.0
aF8.0
aF4.5
aF18.0
aF29.0
aF24.0
aF65.0
aF46.0
aF12.0
aF11.0
asS'aaron_harrison'
p364
(lp365
F2.0
aF0.0
aF11.0
aF10.0
aF3.0
aF3.0
aF19.0
aF5.0
aF3.667
aF12.0
aF5.0
aF1.5
aF4.0
aF10.0
aF-7.0
aF18.0
aF15.0
aF6.0
aF4.0
asS'james_anderson'
p366
(lp367
F41.0
aF14.0
aF73.0
aF86.0
aF23.0
aF6.699000000000001
aF178.0
aF67.0
aF11.513000000000002
aF29.0
aF22.0
aF9.333
aF13.0
aF54.0
aF-82.0
aF179.0
aF86.0
aF21.0
aF42.0
asS'aaron_brooks'
p368
(lp369
F180.0
aF10.0
aF80.0
aF185.0
aF66.0
aF20.821999999999992
aF469.0
aF188.0
aF25.57999999999999
aF64.0
aF49.0
aF18.317
aF21.0
aF132.0
aF-13.0
aF491.0
aF101.0
aF30.0
aF82.0
asS'andre_iguodala'
p370
(lp371
F219.0
aF19.0
aF211.0
aF154.0
aF54.0
aF19.567
aF368.0
aF176.0
aF29.846000000000004
aF83.0
aF51.0
aF17.608
aF52.0
aF102.0
aF455.0
aF457.0
aF263.0
aF73.0
aF79.0
asS'jose_barea'
p372
(lp373
F302.0
aF2.0
aF126.0
aF260.0
aF100.0
aF22.799
aF711.0
aF317.0
aF30.798999999999996
aF96.0
aF74.0
aF32.5
aF26.0
aF110.0
aF-70.0
aF808.0
aF152.0
aF26.0
aF113.0
asS'ramon_sessions'
p374
(lp375
F239.0
aF5.0
aF178.0
aF111.0
aF36.0
aF18.266000000000002
aF592.0
aF280.0
aF37.546
aF283.0
aF214.0
aF54.969999999999985
aF25.0
aF102.0
aF-54.0
aF810.0
aF203.0
aF46.0
aF115.0
asS'deron_williams'
p376
(lp377
F378.0
aF14.0
aF171.0
aF282.0
aF97.0
aF19.736000000000004
aF775.0
aF321.0
aF26.036
aF206.0
aF179.0
aF46.479
aF19.0
aF155.0
aF-2.0
aF918.0
aF190.0
aF61.0
aF150.0
asS'russ_smith'
p378
(lp379
F11.0
aF1.0
aF8.0
aF5.0
aF1.0
aF0.5
aF22.0
aF7.0
aF3.15
aF13.0
aF8.0
aF3.75
aF1.0
aF5.0
aF-41.0
aF23.0
aF9.0
aF5.0
aF7.0
asS'hollis_thompson'
p380
(lp381
F99.0
aF24.0
aF218.0
aF392.0
aF149.0
aF28.790999999999993
aF680.0
aF270.0
aF29.97799999999999
aF96.0
aF69.0
aF29.801
aF54.0
aF187.0
aF-371.0
aF758.0
aF272.0
aF36.0
aF76.0
asS'noah_vonleh'
p382
(lp383
F30.0
aF26.0
aF214.0
aF46.0
aF11.0
aF8.75
aF278.0
aF117.0
aF33.579
aF51.0
aF38.0
aF17.75
aF91.0
aF152.0
aF-60.0
aF283.0
aF305.0
aF27.0
aF50.0
asS'ian_mahinmi'
p384
(lp385
F104.0
aF75.0
aF369.0
aF0.0
aF0.0
aF0.0
aF448.0
aF264.0
aF40.979000000000006
aF225.0
aF132.0
aF32.13000000000001
aF138.0
aF220.0
aF108.0
aF660.0
aF507.0
aF65.0
aF100.0
asS'erick_green'
p386
(lp387
F3.0
aF0.0
aF3.0
aF5.0
aF1.0
aF1.0
aF13.0
aF5.0
aF1.9
aF2.0
aF2.0
aF1.0
aF3.0
aF4.0
aF-1.0
aF13.0
aF6.0
aF1.0
aF0.0
asS'beno_udrih'
p388
(lp389
F116.0
aF1.0
aF64.0
aF44.0
aF15.0
aF9.834
aF198.0
aF86.0
aF18.666999999999994
aF20.0
aF18.0
aF9.0
aF8.0
aF51.0
aF-20.0
aF205.0
aF72.0
aF14.0
aF53.0
asS'tarik_black'
p390
(lp391
F16.0
aF18.0
aF113.0
aF0.0
aF0.0
aF0.0
aF104.0
aF57.0
aF17.317
aF45.0
aF19.0
aF6.875
aF44.0
aF78.0
aF20.0
aF133.0
aF157.0
aF14.0
aF22.0
asS'clint_capela'
p392
(lp393
F47.0
aF92.0
aF300.0
aF1.0
aF0.0
aF0.0
aF397.0
aF231.0
aF44.62699999999999
aF211.0
aF80.0
aF22.776
aF194.0
aF190.0
aF102.0
aF542.0
aF494.0
aF59.0
aF60.0
asS'chris_andersen'
p394
(lp395
F12.0
aF13.0
aF62.0
aF14.0
aF4.0
aF3.5
aF72.0
aF38.0
aF14.087
aF36.0
aF25.0
aF8.0
aF36.0
aF29.0
aF-72.0
aF105.0
aF98.0
aF15.0
aF9.0
asS'jj_obrien'
p396
(lp397
F0.0
aF0.0
aF1.0
aF0.0
aF0.0
aF0.0
aF1.0
aF0.0
aF0.0
aF0.0
aF0.0
aF0.0
aF0.0
aF1.0
aF-8.0
aF0.0
aF1.0
aF1.0
aF0.0
asS'stephen_curry'
p398
(lp399
F527.0
aF15.0
aF362.0
aF886.0
aF402.0
aF34.74
aF1598.0
aF805.0
aF39.452999999999996
aF400.0
aF363.0
aF63.821
aF68.0
aF161.0
aF1030.0
aF2375.0
aF430.0
aF169.0
aF262.0
asS'leandro_barbosa'
p400
(lp401
F82.0
aF10.0
aF89.0
aF110.0
aF39.0
aF18.498
aF370.0
aF171.0
aF29.625000000000004
aF62.0
aF52.0
aF21.417
aF28.0
aF107.0
aF42.0
aF433.0
aF117.0
aF44.0
aF53.0
asS'jarnell_stokes'
p402
(lp403
F1.0
aF0.0
aF3.0
aF0.0
aF0.0
aF0.0
aF5.0
aF3.0
aF1.5
aF2.0
aF1.0
aF0.5
aF1.0
aF1.0
aF9.0
aF7.0
aF4.0
aF1.0
aF0.0
asS'willie_cauley-stein'
p404
(lp405
F37.0
aF66.0
aF218.0
aF2.0
aF0.0
aF0.0
aF339.0
aF191.0
aF33.75600000000001
aF125.0
aF81.0
aF26.617000000000004
aF134.0
aF146.0
aF-78.0
aF463.0
aF352.0
aF48.0
aF46.0
asS'thabo_sefolosha'
p406
(lp407
F107.0
aF37.0
aF282.0
aF124.0
aF42.0
aF20.332999999999995
aF372.0
aF188.0
aF36.196999999999996
aF99.0
aF62.0
aF25.85
aF52.0
aF109.0
aF-19.0
aF480.0
aF334.0
aF85.0
aF68.0
asS'marcus_smart'
p408
(lp409
F185.0
aF18.0
aF179.0
aF241.0
aF61.0
aF12.935999999999996
aF529.0
aF184.0
aF19.389999999999997
aF166.0
aF129.0
aF35.743
aF76.0
aF183.0
aF82.0
aF558.0
aF255.0
aF91.0
aF80.0
asS'kent_bazemore'
p410
(lp411
F171.0
aF38.0
aF351.0
aF305.0
aF109.0
aF24.890000000000004
aF725.0
aF320.0
aF31.856999999999996
aF151.0
aF123.0
aF40.25000000000001
aF28.0
aF176.0
aF76.0
aF872.0
aF379.0
aF98.0
aF138.0
asS'marcelo_huertas'
p412
(lp413
F182.0
aF7.0
aF72.0
aF61.0
aF16.0
aF10.0
aF230.0
aF97.0
aF20.371000000000006
aF29.0
aF27.0
aF15.75
aF18.0
aF76.0
aF17.0
aF237.0
aF90.0
aF26.0
aF80.0
asS'boris_diaw'
p414
(lp415
F176.0
aF21.0
aF175.0
aF69.0
aF25.0
aF18.733
aF383.0
aF202.0
aF37.49900000000001
aF76.0
aF56.0
aF23.451000000000004
aF58.0
aF102.0
aF289.0
aF485.0
aF233.0
aF26.0
aF97.0
asS'elfrid_payton'
p416
(lp417
F467.0
aF20.0
aF184.0
aF92.0
aF30.0
aF14.333
aF730.0
aF318.0
aF30.219999999999995
aF190.0
aF112.0
aF29.348999999999997
aF77.0
aF159.0
aF-72.0
aF778.0
aF261.0
aF89.0
aF177.0
asS'kelly_oubre'
p418
(lp419
F13.0
aF7.0
aF108.0
aF79.0
aF25.0
aF11.286
aF211.0
aF90.0
aF19.714
aF49.0
aF31.0
aF13.333
aF25.0
aF100.0
aF-46.0
aF236.0
aF133.0
aF22.0
aF34.0
asS'dwyane_wade'
p420
(lp421
F344.0
aF42.0
aF220.0
aF44.0
aF7.0
aF4.0
aF1183.0
aF540.0
aF33.947
aF406.0
aF322.0
aF52.601000000000006
aF82.0
aF116.0
aF-8.0
aF1409.0
aF302.0
aF79.0
aF203.0
asS'al_horford'
p422
(lp423
F263.0
aF121.0
aF448.0
aF256.0
aF88.0
aF25.609999999999992
aF1048.0
aF529.0
aF41.61499999999997
aF129.0
aF103.0
aF37.266999999999996
aF148.0
aF163.0
aF231.0
aF1249.0
aF596.0
aF68.0
aF107.0
asS'ray_mccallum'
p424
(lp425
F60.0
aF7.0
aF39.0
aF42.0
aF15.0
aF5.816
aF146.0
aF55.0
aF9.789
aF15.0
aF12.0
aF4.667
aF8.0
aF29.0
aF21.0
aF137.0
aF47.0
aF12.0
aF24.0
asS'marc_gasol'
p426
(lp427
F196.0
aF70.0
aF304.0
aF3.0
aF2.0
aF2.0
aF707.0
aF328.0
aF24.245
aF245.0
aF203.0
aF38.07000000000001
aF58.0
aF141.0
aF11.0
aF861.0
aF362.0
aF50.0
aF118.0
asS'cole_aldrich'
p428
(lp429
F50.0
aF68.0
aF202.0
aF0.0
aF0.0
aF0.0
aF225.0
aF134.0
aF33.95100000000001
aF84.0
aF60.0
aF21.455999999999996
aF86.0
aF139.0
aF-26.0
aF328.0
aF288.0
aF47.0
aF64.0
asS'ryan_hollins'
p430
(lp431
F10.0
aF21.0
aF51.0
aF0.0
aF0.0
aF0.0
aF79.0
aF49.0
aF16.988999999999997
aF42.0
aF26.0
aF10.083
aF47.0
aF62.0
aF-148.0
aF124.0
aF98.0
aF6.0
aF24.0
asS'andre_miller'
p432
(lp433
F87.0
aF0.0
aF39.0
aF8.0
aF2.0
aF2.0
aF106.0
aF59.0
aF15.401
aF32.0
aF24.0
aF10.333
aF12.0
aF46.0
aF32.0
aF144.0
aF51.0
aF16.0
aF37.0
asS'anthony_davis'
p434
(lp435
F116.0
aF125.0
aF497.0
aF108.0
aF35.0
aF15.219
aF1136.0
aF560.0
aF29.596000000000004
aF430.0
aF326.0
aF42.684
aF130.0
aF148.0
aF-200.0
aF1481.0
aF627.0
aF78.0
aF121.0
asS'udonis_haslem'
p436
(lp437
F14.0
aF2.0
aF65.0
aF9.0
aF1.0
aF1.0
aF61.0
aF23.0
aF9.166
aF16.0
aF12.0
aF5.583
aF10.0
aF25.0
aF-17.0
aF59.0
aF75.0
aF5.0
aF5.0
asS'elijah_millsap'
p438
(lp439
F19.0
aF3.0
aF29.0
aF12.0
aF1.0
aF0.5
aF39.0
aF11.0
aF4.066
aF18.0
aF13.0
aF4.333
aF6.0
aF33.0
aF21.0
aF36.0
aF35.0
aF7.0
aF9.0
asS'cameron_payne'
p440
(lp441
F108.0
aF6.0
aF76.0
aF111.0
aF36.0
aF13.3
aF278.0
aF114.0
aF19.389
aF24.0
aF19.0
aF9.25
aF9.0
aF80.0
aF-28.0
aF283.0
aF85.0
aF36.0
aF44.0
asS'ronnie_price'
p442
(lp443
F147.0
aF13.0
aF74.0
aF196.0
aF68.0
aF18.107
aF302.0
aF116.0
aF20.333
aF41.0
aF31.0
aF11.0
aF25.0
aF161.0
aF-75.0
aF331.0
aF99.0
aF74.0
aF70.0
asS'kevin_martin'
p444
(lp445
F58.0
aF3.0
aF96.0
aF136.0
aF49.0
aF16.223
aF419.0
aF156.0
aF19.293999999999997
aF172.0
aF153.0
aF39.201
aF14.0
aF83.0
aF-121.0
aF514.0
aF110.0
aF26.0
aF54.0
asS'rj_hunter'
p446
(lp447
F13.0
aF4.0
aF35.0
aF63.0
aF19.0
aF8.15
aF98.0
aF36.0
aF9.527
aF7.0
aF6.0
aF3.5
aF2.0
aF29.0
aF-28.0
aF97.0
aF37.0
aF14.0
aF11.0
asS'jordan_mcrae'
p448
(lp449
F25.0
aF1.0
aF16.0
aF22.0
aF10.0
aF5.1
aF78.0
aF34.0
aF7.926
aF28.0
aF21.0
aF7.125
aF4.0
aF17.0
aF44.0
aF99.0
aF20.0
aF3.0
aF15.0
asS'jeff_teague'
p450
(lp451
F470.0
aF24.0
aF181.0
aF275.0
aF110.0
aF31.812
aF988.0
aF434.0
aF34.164
aF312.0
aF261.0
aF57.663999999999994
aF33.0
aF167.0
aF70.0
aF1239.0
aF214.0
aF97.0
aF218.0
asS'alex_len'
p452
(lp453
F97.0
aF62.0
aF416.0
aF7.0
aF1.0
aF1.0
aF624.0
aF264.0
aF30.72199999999999
aF239.0
aF174.0
aF38.11900000000001
aF178.0
aF230.0
aF-288.0
aF703.0
aF594.0
aF38.0
aF145.0
asS'spencer_dinwiddie'
p454
(lp455
F22.0
aF0.0
aF13.0
aF10.0
aF1.0
aF0.333
aF54.0
aF19.0
aF4.353
aF33.0
aF19.0
aF4.234
aF4.0
aF20.0
aF-56.0
aF58.0
aF17.0
aF3.0
aF7.0
asS'john_wall'
p456
(lp457
F789.0
aF59.0
aF337.0
aF328.0
aF115.0
aF26.385999999999996
aF1349.0
aF572.0
aF32.629
aF344.0
aF272.0
aF57.163000000000004
aF42.0
aF159.0
aF100.0
aF1531.0
aF379.0
aF145.0
aF318.0
asS'kevin_love'
p458
(lp459
F185.0
aF41.0
aF613.0
aF439.0
aF158.0
aF25.127999999999997
aF977.0
aF409.0
aF31.544999999999995
aF314.0
aF258.0
aF53.90599999999999
aF149.0
aF159.0
aF426.0
aF1234.0
aF762.0
aF58.0
aF142.0
asS'darren_collison'
p460
(lp461
F318.0
aF4.0
aF141.0
aF217.0
aF87.0
aF27.91499999999999
aF776.0
aF377.0
aF35.886999999999986
aF226.0
aF194.0
aF54.62099999999999
aF28.0
aF142.0
aF-69.0
aF1035.0
aF169.0
aF76.0
aF130.0
asS'jordan_hamilton'
p462
(lp463
F25.0
aF3.0
aF50.0
aF45.0
aF13.0
aF2.4330000000000003
aF116.0
aF49.0
aF4.646
aF21.0
aF14.0
aF5.5
aF12.0
aF24.0
aF-64.0
aF125.0
aF62.0
aF8.0
aF17.0
asS'randy_foye'
p464
(lp465
F161.0
aF29.0
aF132.0
aF250.0
aF75.0
aF17.507
aF482.0
aF169.0
aF25.998999999999988
aF74.0
aF61.0
aF22.084
aF24.0
aF131.0
aF28.0
aF474.0
aF156.0
aF39.0
aF86.0
asS'briante_weber'
p466
(lp467
F21.0
aF3.0
aF17.0
aF5.0
aF0.0
aF0.0
aF39.0
aF14.0
aF2.7039999999999997
aF4.0
aF3.0
aF1.5
aF8.0
aF12.0
aF-67.0
aF31.0
aF25.0
aF9.0
aF9.0
asS'steven_adams'
p468
(lp469
F62.0
aF89.0
aF314.0
aF0.0
aF0.0
aF0.0
aF426.0
aF261.0
aF47.714000000000006
aF196.0
aF114.0
aF34.626000000000005
aF219.0
aF223.0
aF473.0
aF636.0
aF533.0
aF42.0
aF84.0
asS'rudy_gobert'
p470
(lp471
F91.0
aF135.0
aF460.0
aF0.0
aF0.0
aF0.0
aF354.0
aF198.0
aF34.218
aF283.0
aF161.0
aF30.441999999999997
aF208.0
aF163.0
aF150.0
aF557.0
aF668.0
aF45.0
aF114.0
asS'frank_kaminsky'
p472
(lp473
F98.0
aF43.0
aF266.0
aF202.0
aF68.0
aF26.523999999999997
aF525.0
aF215.0
aF32.566
aF148.0
aF108.0
aF30.332000000000004
aF69.0
aF126.0
aF-19.0
aF606.0
aF335.0
aF38.0
aF58.0
asS'matt_barnes'
p474
(lp475
F163.0
aF57.0
aF336.0
aF370.0
aF119.0
aF21.755
aF693.0
aF264.0
aF28.15199999999999
aF138.0
aF111.0
aF35.483999999999995
aF84.0
aF234.0
aF-212.0
aF758.0
aF420.0
aF78.0
aF121.0
asS'deandre_jordan'
p476
(lp477
F90.0
aF177.0
aF792.0
aF1.0
aF0.0
aF0.0
aF508.0
aF357.0
aF55.158000000000015
aF619.0
aF266.0
aF33.915000000000006
aF267.0
aF207.0
aF436.0
aF980.0
aF1059.0
aF51.0
aF107.0
asS'russell_westbrook'
p478
(lp479
F834.0
aF20.0
aF481.0
aF341.0
aF101.0
aF21.147999999999993
aF1444.0
aF656.0
aF36.780999999999985
aF573.0
aF465.0
aF62.523999999999994
aF145.0
aF200.0
aF631.0
aF1878.0
aF626.0
aF163.0
aF342.0
asS'joe_johnson'
p480
(lp481
F318.0
aF4.0
aF243.0
aF313.0
aF120.0
aF31.130999999999993
aF859.0
aF377.0
aF34.45
aF142.0
aF118.0
aF39.024
aF49.0
aF146.0
aF-57.0
aF992.0
aF292.0
aF61.0
aF159.0
asS'josh_huestis'
p482
(lp483
F0.0
aF2.0
aF8.0
aF6.0
aF4.0
aF3.0
aF12.0
aF5.0
aF2.334
aF4.0
aF0.0
aF0.0
aF2.0
aF3.0
aF2.0
aF14.0
aF10.0
aF1.0
aF3.0
asS'joe_ingles'
p484
(lp485
F96.0
aF4.0
aF132.0
aF210.0
aF81.0
aF24.086999999999996
aF291.0
aF124.0
aF30.304000000000002
aF18.0
aF13.0
aF7.667
aF19.0
aF98.0
aF2.0
aF342.0
aF151.0
aF55.0
aF65.0
asS'mitch_mcgary'
p486
(lp487
F3.0
aF2.0
aF14.0
aF4.0
aF0.0
aF0.0
aF23.0
aF11.0
aF4.001
aF10.0
aF4.0
aF2.0
aF4.0
aF10.0
aF-51.0
aF26.0
aF18.0
aF1.0
aF7.0
asS'coty_clarke'
p488
(lp489
F0.0
aF0.0
aF1.0
aF2.0
aF2.0
aF2.0
aF4.0
aF2.0
aF1.333
aF0.0
aF0.0
aF0.0
aF0.0
aF0.0
aF4.0
aF6.0
aF1.0
aF0.0
aF1.0
asS'spencer_hawes'
p490
(lp491
F109.0
aF27.0
aF193.0
aF102.0
aF38.0
aF17.633
aF306.0
aF124.0
aF21.110000000000003
aF65.0
aF54.0
aF19.0
aF51.0
aF111.0
aF44.0
aF340.0
aF244.0
aF22.0
aF58.0
asS'richaun_holmes'
p492
(lp493
F33.0
aF40.0
aF73.0
aF44.0
aF8.0
aF5.833
aF222.0
aF114.0
aF24.597999999999995
aF74.0
aF51.0
aF16.957
aF62.0
aF92.0
aF-53.0
aF287.0
aF135.0
aF19.0
aF32.0
asS'avery_bradley'
p494
(lp495
F158.0
aF19.0
aF172.0
aF407.0
aF147.0
aF25.240000000000006
aF1019.0
aF456.0
aF33.467999999999996
aF123.0
aF96.0
aF34.884
aF48.0
aF164.0
aF216.0
aF1155.0
aF220.0
aF117.0
aF109.0
asS'trey_lyles'
p496
(lp497
F59.0
aF18.0
aF240.0
aF128.0
aF49.0
aF16.616
aF436.0
aF191.0
aF30.658
aF82.0
aF57.0
aF22.167
aF59.0
aF114.0
aF-45.0
aF488.0
aF299.0
aF26.0
aF65.0
asS'hassan_whiteside'
p498
(lp499
F29.0
aF269.0
aF627.0
aF0.0
aF0.0
aF0.0
aF682.0
aF413.0
aF44.41299999999999
aF329.0
aF214.0
aF41.538000000000004
aF238.0
aF201.0
aF86.0
aF1040.0
aF865.0
aF44.0
aF137.0
asS'cj_mccollum'
p500
(lp501
F341.0
aF23.0
aF212.0
aF472.0
aF197.0
aF31.950000000000003
aF1431.0
aF641.0
aF35.83599999999999
aF226.0
aF187.0
aF51.952000000000005
aF47.0
aF187.0
aF157.0
aF1666.0
aF259.0
aF97.0
aF196.0
asS'tyler_zeller'
p502
(lp503
F29.0
aF22.0
aF116.0
aF0.0
aF0.0
aF0.0
aF290.0
aF138.0
aF25.801000000000002
aF108.0
aF88.0
aF31.222
aF62.0
aF97.0
aF-65.0
aF364.0
aF178.0
aF10.0
aF46.0
asS'marco_belinelli'
p504
(lp505
F127.0
aF2.0
aF107.0
aF297.0
aF91.0
aF16.938000000000002
aF635.0
aF245.0
aF25.284999999999993
aF138.0
aF115.0
aF33.171
aF10.0
aF91.0
aF-187.0
aF696.0
aF117.0
aF37.0
aF80.0
asS'trey_burke'
p506
(lp507
F148.0
aF6.0
aF94.0
aF256.0
aF88.0
aF19.980999999999998
aF634.0
aF262.0
aF24.41999999999999
aF82.0
aF67.0
aF26.024
aF18.0
aF86.0
aF0.0
aF679.0
aF112.0
aF35.0
aF80.0
asS'troy_daniels'
p508
(lp509
F21.0
aF3.0
aF50.0
aF122.0
aF59.0
aF18.866999999999997
aF187.0
aF89.0
aF20.604999999999997
aF9.0
aF5.0
aF3.0
aF7.0
aF40.0
aF-42.0
aF242.0
aF57.0
aF11.0
aF24.0
asS'isaiah_thomas'
p510
(lp511
F509.0
aF9.0
aF197.0
aF465.0
aF167.0
aF28.490000000000002
aF1382.0
aF591.0
aF35.22
aF544.0
aF474.0
aF68.284
aF46.0
aF167.0
aF295.0
aF1823.0
aF243.0
aF91.0
aF220.0
asS'tobias_harris'
p512
(lp513
F169.0
aF40.0
aF414.0
aF239.0
aF80.0
aF25.046999999999993
aF889.0
aF417.0
aF35.821000000000005
aF243.0
aF202.0
aF52.074
aF96.0
aF153.0
aF18.0
aF1116.0
aF510.0
aF65.0
aF108.0
asS'tj_warren'
p514
(lp515
F44.0
aF16.0
aF90.0
aF70.0
aF28.0
aF10.583
aF441.0
aF221.0
aF21.36199999999999
aF64.0
aF45.0
aF17.8
aF57.0
aF94.0
aF-111.0
aF515.0
aF147.0
aF37.0
aF32.0
asS'mike_conley'
p516
(lp517
F342.0
aF16.0
aF138.0
aF215.0
aF78.0
aF19.422000000000004
aF696.0
aF294.0
aF23.437999999999995
aF229.0
aF191.0
aF43.355000000000004
aF26.0
aF100.0
aF68.0
aF857.0
aF164.0
aF67.0
aF84.0
asS'jose_calderon'
p518
(lp519
F298.0
aF7.0
aF207.0
aF203.0
aF84.0
aF24.944999999999997
aF455.0
aF209.0
aF30.756999999999994
aF48.0
aF42.0
aF21.5
aF22.0
aF135.0
aF-76.0
aF544.0
aF229.0
aF63.0
aF87.0
asS'joel_anthony'
p520
(lp521
F1.0
aF12.0
aF13.0
aF0.0
aF0.0
aF0.0
aF10.0
aF6.0
aF3.5
aF8.0
aF6.0
aF3.0
aF8.0
aF15.0
aF-17.0
aF18.0
aF21.0
aF2.0
aF2.0
asS'mike_muscala'
p522
(lp523
F34.0
aF27.0
aF79.0
aF39.0
aF12.0
aF8.283000000000001
aF152.0
aF76.0
aF22.608999999999998
aF39.0
aF31.0
aF11.035
aF38.0
aF72.0
aF-32.0
aF195.0
aF117.0
aF13.0
aF27.0
asS'montrezl_harrell'
p524
(lp525
F17.0
aF11.0
aF40.0
aF1.0
aF0.0
aF0.0
aF90.0
aF58.0
aF19.098
aF46.0
aF24.0
aF8.35
aF25.0
aF48.0
aF37.0
aF140.0
aF65.0
aF11.0
aF17.0
asS'markel_brown'
p526
(lp527
F91.0
aF15.0
aF99.0
aF121.0
aF38.0
aF13.682
aF322.0
aF127.0
aF20.575999999999997
aF94.0
aF71.0
aF23.239
aF23.0
aF94.0
aF-237.0
aF363.0
aF122.0
aF38.0
aF54.0
asS'derrick_favors'
p528
(lp529
F94.0
aF91.0
aF334.0
aF4.0
aF0.0
aF0.0
aF811.0
aF418.0
aF31.660000000000004
aF254.0
aF180.0
aF42.107000000000006
aF169.0
aF150.0
aF96.0
aF1016.0
aF503.0
aF74.0
aF104.0
asS'cody_zeller'
p530
(lp531
F71.0
aF63.0
aF317.0
aF10.0
aF1.0
aF1.0
aF437.0
aF231.0
aF37.04200000000001
aF232.0
aF175.0
aF43.974
aF138.0
aF204.0
aF165.0
aF638.0
aF455.0
aF57.0
aF68.0
asS'daniel_green'
p532
(lp533
F141.0
aF64.0
aF255.0
aF349.0
aF116.0
aF24.31799999999999
aF561.0
aF211.0
aF30.223999999999993
aF46.0
aF34.0
aF15.167
aF48.0
aF141.0
aF506.0
aF572.0
aF303.0
aF79.0
aF75.0
asS'rajon_rondo'
p534
(lp535
F839.0
aF10.0
aF358.0
aF170.0
aF62.0
aF21.363
aF782.0
aF355.0
aF31.798999999999992
aF150.0
aF87.0
aF24.773999999999997
aF77.0
aF175.0
aF-154.0
aF859.0
aF435.0
aF141.0
aF278.0
asS'eric_moreland'
p536
(lp537
F1.0
aF4.0
aF8.0
aF0.0
aF0.0
aF0.0
aF6.0
aF3.0
aF2.5
aF4.0
aF2.0
aF1.0
aF3.0
aF4.0
aF7.0
aF8.0
aF11.0
aF0.0
aF3.0
asS'nikola_mirotic'
p538
(lp539
F100.0
aF46.0
aF304.0
aF346.0
aF135.0
aF23.165999999999993
aF609.0
aF248.0
aF24.885000000000005
aF181.0
aF146.0
aF34.723
aF58.0
aF151.0
aF41.0
aF777.0
aF362.0
aF58.0
aF102.0
asS'elton_brand'
p540
(lp541
F18.0
aF8.0
aF54.0
aF1.0
aF0.0
aF0.0
aF72.0
aF31.0
aF5.977000000000001
aF9.0
aF8.0
aF4.5
aF9.0
aF32.0
aF-39.0
aF70.0
aF63.0
aF9.0
aF11.0
asS'jeff_ayres'
p542
(lp543
F5.0
aF3.0
aF18.0
aF1.0
aF0.0
aF0.0
aF23.0
aF12.0
aF6.125
aF6.0
aF6.0
aF3.0
aF4.0
aF18.0
aF-46.0
aF30.0
aF22.0
aF0.0
aF6.0
asS'robert_sacre'
p544
(lp545
F14.0
aF10.0
aF40.0
aF0.0
aF0.0
aF0.0
aF75.0
aF31.0
aF9.161000000000001
aF38.0
aF25.0
aF7.333
aF32.0
aF43.0
aF-35.0
aF87.0
aF72.0
aF4.0
aF12.0
asS'ben_mclemore'
p546
(lp547
F79.0
aF10.0
aF114.0
aF185.0
aF67.0
aF20.515999999999995
aF455.0
aF195.0
aF29.076999999999995
aF103.0
aF74.0
aF26.584000000000003
aF34.0
aF140.0
aF22.0
aF531.0
aF148.0
aF52.0
aF99.0
asS'wesley_johnson'
p548
(lp549
F49.0
aF56.0
aF211.0
aF309.0
aF103.0
aF24.742999999999995
aF515.0
aF208.0
aF34.085
aF46.0
aF30.0
aF15.183
aF37.0
aF173.0
aF121.0
aF549.0
aF248.0
aF89.0
aF54.0
asS'dangelo_russell'
p550
(lp551
F266.0
aF13.0
aF227.0
aF370.0
aF130.0
aF25.511999999999993
aF956.0
aF392.0
aF32.593999999999994
aF190.0
aF140.0
aF38.494
aF47.0
aF142.0
aF-549.0
aF1054.0
aF274.0
aF93.0
aF196.0
asS'darrell_arthur'
p552
(lp553
F96.0
aF48.0
aF207.0
aF117.0
aF45.0
aF17.683
aF489.0
aF221.0
aF28.22099999999999
aF53.0
aF40.0
aF16.8
aF86.0
aF185.0
aF-52.0
aF527.0
aF293.0
aF53.0
aF66.0
asS'khris_middleton'
p554
(lp555
F331.0
aF19.0
aF258.0
aF361.0
aF143.0
aF29.848999999999993
aF1142.0
aF507.0
aF34.89200000000001
aF312.0
aF277.0
aF62.041
aF44.0
aF204.0
aF-31.0
aF1434.0
aF302.0
aF131.0
aF180.0
asS'toney_douglas'
p556
(lp557
F157.0
aF5.0
aF118.0
aF203.0
aF81.0
aF19.743999999999996
aF445.0
aF183.0
aF22.811
aF99.0
aF84.0
aF24.357
aF25.0
aF131.0
aF-140.0
aF531.0
aF143.0
aF70.0
aF64.0
asS'demarcus_cousins'
p558
(lp559
F214.0
aF92.0
aF589.0
aF210.0
aF70.0
aF21.133
aF1332.0
aF601.0
aF29.055000000000003
aF663.0
aF476.0
aF45.59399999999999
aF158.0
aF236.0
aF37.0
aF1748.0
aF747.0
aF101.0
aF249.0
asS'nick_young'
p560
(lp561
F34.0
aF7.0
aF83.0
aF237.0
aF77.0
aF15.307000000000002
aF372.0
aF126.0
aF16.412
aF76.0
aF63.0
aF22.417
aF14.0
aF50.0
aF-200.0
aF392.0
aF97.0
aF23.0
aF30.0
asS'rashad_vaughn'
p562
(lp563
F39.0
aF16.0
aF77.0
aF147.0
aF43.0
aF16.278
aF266.0
aF81.0
aF17.725
aF15.0
aF12.0
aF5.167
aF11.0
aF73.0
aF-143.0
aF217.0
aF88.0
aF29.0
aF28.0
asS'rakeem_christmas'
p564
(lp565
g300
ag300
ag300
ag300
ag300
ag300
ag293
ag293
ag295
ag300
ag300
ag300
ag295
ag295
aS'-10'
p566
ag294
ag295
ag300
ag300
asS'mason_plumlee'
p567
(lp568
F226.0
aF85.0
aF427.0
aF4.0
aF0.0
aF0.0
aF517.0
aF267.0
aF42.05899999999999
aF335.0
aF215.0
aF46.909
aF201.0
aF253.0
aF37.0
aF749.0
aF628.0
aF68.0
aF154.0
asS'pat_connaughton'
p569
(lp570
F10.0
aF0.0
aF21.0
aF21.0
aF5.0
aF2.75
aF49.0
aF13.0
aF4.734
aF5.0
aF5.0
aF3.0
aF11.0
aF6.0
aF-13.0
aF36.0
aF32.0
aF2.0
aF10.0
asS'trevor_ariza'
p571
(lp572
F188.0
aF26.0
aF299.0
aF499.0
aF185.0
aF30.241999999999994
aF859.0
aF357.0
aF33.19
aF161.0
aF126.0
aF40.825
aF67.0
aF177.0
aF41.0
aF1025.0
aF366.0
aF160.0
aF113.0
asS'anthony_tolliver'
p573
(lp574
F52.0
aF16.0
aF190.0
aF272.0
aF98.0
aF22.264000000000006
aF332.0
aF128.0
aF25.236
aF47.0
aF29.0
aF12.166
aF39.0
aF86.0
aF14.0
aF383.0
aF229.0
aF26.0
aF28.0
asS'josh_richardson'
p575
(lp576
F73.0
aF25.0
aF86.0
aF115.0
aF53.0
aF17.016000000000002
aF272.0
aF123.0
aF16.892
aF63.0
aF42.0
aF16.666
aF21.0
aF107.0
aF39.0
aF341.0
aF107.0
aF36.0
aF35.0
asS'jason_thompson'
p577
(lp578
F29.0
aF20.0
aF102.0
aF15.0
aF5.0
aF2.75
aF108.0
aF52.0
aF18.415
aF54.0
aF38.0
aF11.342
aF32.0
aF80.0
aF-7.0
aF147.0
aF134.0
aF12.0
aF15.0
asS'dennis_schroder'
p579
(lp580
F349.0
aF9.0
aF179.0
aF239.0
aF77.0
aF20.67299999999999
aF781.0
aF329.0
aF32.983999999999995
aF182.0
aF144.0
aF45.459999999999994
aF25.0
aF138.0
aF223.0
aF879.0
aF204.0
aF70.0
aF183.0
asS'jarell_eddie'
p581
(lp582
F5.0
aF1.0
aF21.0
aF47.0
aF15.0
aF5.786
aF65.0
aF20.0
aF6.888
aF8.0
aF8.0
aF4.0
aF2.0
aF5.0
aF-33.0
aF63.0
aF23.0
aF5.0
aF1.0
asS'kevon_looney'
p583
(lp584
F0.0
aF0.0
aF6.0
aF2.0
aF1.0
aF1.0
aF7.0
aF4.0
aF2.5
aF0.0
aF0.0
aF0.0
aF4.0
aF2.0
aF-22.0
aF9.0
aF10.0
aF0.0
aF1.0
asS'cameron_bairstow'
p585
(lp586
F6.0
aF3.0
aF24.0
aF5.0
aF1.0
aF1.0
aF40.0
aF13.0
aF5.633
aF8.0
aF7.0
aF3.5
aF4.0
aF19.0
aF-8.0
aF34.0
aF28.0
aF2.0
aF4.0
asS'nick_collison'
p587
(lp588
F52.0
aF16.0
aF103.0
aF2.0
aF0.0
aF0.0
aF109.0
aF50.0
aF21.067
aF33.0
aF23.0
aF9.667
aF68.0
aF107.0
aF25.0
aF123.0
aF171.0
aF15.0
aF50.0
asS'marcus_morris'
p589
(lp590
F201.0
aF23.0
aF313.0
aF298.0
aF108.0
aF29.061
aF945.0
aF410.0
aF34.436
aF271.0
aF203.0
aF52.040000000000006
aF91.0
aF170.0
aF156.0
aF1131.0
aF404.0
aF67.0
aF140.0
asS'kevin_seraphin'
p591
(lp592
F47.0
aF36.0
aF95.0
aF2.0
aF0.0
aF0.0
aF205.0
aF84.0
aF16.174
aF23.0
aF19.0
aF7.667
aF31.0
aF67.0
aF-86.0
aF187.0
aF126.0
aF8.0
aF43.0
asS'andre_roberson'
p593
(lp594
F47.0
aF42.0
aF172.0
aF103.0
aF32.0
aF17.265
aF274.0
aF136.0
aF35.373000000000005
aF54.0
aF33.0
aF15.417
aF79.0
aF133.0
aF258.0
aF337.0
aF251.0
aF53.0
aF35.0
asS'tony_snell'
p595
(lp596
F63.0
aF17.0
aF180.0
aF155.0
aF56.0
aF17.221999999999998
aF339.0
aF126.0
aF23.223999999999997
aF33.0
aF30.0
aF12.083
aF19.0
aF100.0
aF97.0
aF338.0
aF199.0
aF16.0
aF52.0
asS'jordan_adams'
p597
(lp598
F3.0
aF0.0
aF2.0
aF1.0
aF0.0
aF0.0
aF6.0
aF2.0
aF0.75
aF5.0
aF3.0
aF1.167
aF0.0
aF2.0
aF4.0
aF7.0
aF2.0
aF3.0
aF2.0
asS'joffrey_lauvergne'
p599
(lp600
F56.0
aF15.0
aF213.0
aF53.0
aF13.0
aF8.5
aF380.0
aF195.0
aF27.97600000000001
aF69.0
aF62.0
aF26.5
aF77.0
aF115.0
aF-221.0
aF465.0
aF290.0
aF13.0
aF54.0
asS'greg_monroe'
p601
(lp602
F178.0
aF67.0
aF478.0
aF1.0
aF0.0
aF0.0
aF941.0
aF491.0
aF41.08499999999997
aF308.0
aF228.0
aF51.479
aF218.0
aF163.0
aF-112.0
aF1210.0
aF696.0
aF72.0
aF129.0
asS'dwight_howard'
p603
(lp604
F98.0
aF113.0
aF597.0
aF6.0
aF0.0
aF0.0
aF600.0
aF372.0
aF42.733999999999995
aF474.0
aF232.0
aF31.563
aF238.0
aF219.0
aF18.0
aF976.0
aF835.0
aF69.0
aF166.0
asS'amir_johnson'
p605
(lp606
F138.0
aF83.0
aF327.0
aF43.0
aF10.0
aF6.416
aF426.0
aF249.0
aF44.863000000000014
aF121.0
aF69.0
aF26.85
aF178.0
aF214.0
aF139.0
aF577.0
aF505.0
aF52.0
aF94.0
asS'rondae_hollis-jefferson'
p607
(lp608
F43.0
aF16.0
aF115.0
aF14.0
aF4.0
aF1.583
aF138.0
aF63.0
aF11.405999999999999
aF52.0
aF37.0
aF13.0
aF39.0
aF61.0
aF-61.0
aF167.0
aF154.0
aF39.0
aF26.0
asS'tony_parker'
p609
(lp610
F379.0
aF11.0
aF159.0
aF65.0
aF27.0
aF16.833
aF710.0
aF350.0
aF33.078
aF171.0
aF130.0
aF36.983999999999995
aF17.0
aF114.0
aF415.0
aF857.0
aF176.0
aF54.0
aF131.0
asS'ed_davis'
p611
(lp612
F88.0
aF72.0
aF375.0
aF0.0
aF0.0
aF0.0
aF337.0
aF206.0
aF46.337
aF204.0
aF114.0
aF35.730999999999995
aF224.0
aF202.0
aF20.0
aF526.0
aF599.0
aF57.0
aF64.0
asS'kyrie_irving'
p613
(lp614
F250.0
aF18.0
aF113.0
aF262.0
aF84.0
aF15.897999999999998
aF879.0
aF394.0
aF23.276999999999997
aF191.0
aF169.0
aF40.683
aF44.0
aF107.0
aF204.0
aF1041.0
aF157.0
aF56.0
aF124.0
asS'cj_miles'
p615
(lp616
F63.0
aF29.0
aF150.0
aF387.0
aF142.0
aF21.284
aF634.0
aF259.0
aF24.887000000000004
aF124.0
aF93.0
aF31.718000000000007
aF25.0
aF142.0
aF3.0
aF753.0
aF175.0
aF53.0
aF70.0
asS'corey_brewer'
p617
(lp618
F109.0
aF19.0
aF157.0
aF224.0
aF61.0
aF18.914
aF552.0
aF212.0
aF31.836999999999996
aF140.0
aF105.0
aF38.47500000000001
aF42.0
aF168.0
aF-87.0
aF590.0
aF199.0
aF84.0
aF78.0
asS'tyson_chandler'
p619
(lp620
F64.0
aF44.0
aF401.0
aF1.0
aF0.0
aF0.0
aF314.0
aF183.0
aF34.107000000000006
aF171.0
aF106.0
aF28.537
aF175.0
aF145.0
aF-395.0
aF472.0
aF576.0
aF36.0
aF93.0
asS'sasha_kaun'
p621
(lp622
F3.0
aF5.0
aF14.0
aF0.0
aF0.0
aF0.0
aF17.0
aF9.0
aF5.334
aF11.0
aF5.0
aF2.5
aF12.0
aF11.0
aF-4.0
aF23.0
aF26.0
aF4.0
aF7.0
asS'tony_wroten'
p623
(lp624
F20.0
aF0.0
aF19.0
aF17.0
aF3.0
aF0.75
aF65.0
aF22.0
aF2.622
aF37.0
aF20.0
aF4.1
aF2.0
aF11.0
aF-68.0
aF67.0
aF21.0
aF3.0
aF29.0
asS'kendrick_perkins'
p625
(lp626
F31.0
aF11.0
aF103.0
aF0.0
aF0.0
aF0.0
aF75.0
aF40.0
aF16.973999999999997
aF25.0
aF11.0
aF4.75
aF25.0
aF64.0
aF-77.0
aF91.0
aF128.0
aF11.0
aF41.0
asS'timothy_hardaway'
p627
(lp628
F51.0
aF7.0
aF79.0
aF142.0
aF48.0
aF14.167000000000002
aF265.0
aF114.0
aF18.692
aF56.0
aF50.0
aF21.292
aF7.0
aF48.0
aF101.0
aF326.0
aF86.0
aF21.0
aF23.0
asS'patrick_beverley'
p629
(lp630
F239.0
aF26.0
aF177.0
aF310.0
aF124.0
aF29.633999999999997
aF594.0
aF258.0
aF30.324999999999996
aF88.0
aF60.0
aF18.034
aF73.0
aF234.0
aF137.0
aF700.0
aF250.0
aF94.0
aF91.0
asS'rodney_hood'
p631
(lp632
F213.0
aF16.0
aF229.0
aF449.0
aF161.0
aF27.520999999999997
aF972.0
aF408.0
aF33.23599999999999
aF200.0
aF172.0
aF51.391
aF38.0
aF202.0
aF130.0
aF1149.0
aF267.0
aF73.0
aF125.0
asS'james_ennis'
p633
(lp634
F21.0
aF5.0
aF21.0
aF58.0
aF26.0
aF6.103
aF113.0
aF54.0
aF6.215
aF34.0
aF25.0
aF7.441
aF21.0
aF28.0
aF-45.0
aF159.0
aF42.0
aF16.0
aF19.0
asS'cj_watson'
p635
(lp636
F88.0
aF5.0
aF56.0
aF48.0
aF14.0
aF7.4990000000000006
aF137.0
aF47.0
aF11.573999999999998
aF39.0
aF34.0
aF13.25
aF10.0
aF49.0
aF-47.0
aF142.0
aF66.0
aF19.0
aF25.0
asS'anthony_brown'
p637
(lp638
F19.0
aF5.0
aF61.0
aF70.0
aF20.0
aF7.7490000000000006
aF126.0
aF39.0
aF8.527999999999999
aF20.0
aF17.0
aF8.833
aF9.0
aF34.0
aF-33.0
aF115.0
aF70.0
aF14.0
aF15.0
asS'thanasis_antetokounmpo'
p639
(lp640
F0.0
aF0.0
aF1.0
aF1.0
aF0.0
aF0.0
aF4.0
aF3.0
aF1.667
aF0.0
aF0.0
aF0.0
aF0.0
aF2.0
aF-6.0
aF6.0
aF1.0
aF0.0
aF0.0
asS'alan_anderson'
p641
(lp642
F14.0
aF1.0
aF26.0
aF37.0
aF12.0
aF4.071
aF59.0
aF21.0
aF4.593
aF15.0
aF11.0
aF5.167
aF1.0
aF25.0
aF30.0
aF65.0
aF27.0
aF4.0
aF2.0
asS'cj_wilcox'
p643
(lp644
F10.0
aF2.0
aF11.0
aF23.0
aF9.0
aF2.733
aF66.0
aF26.0
aF7.956999999999999
aF12.0
aF9.0
aF3.667
aF1.0
aF15.0
aF22.0
aF70.0
aF12.0
aF10.0
aF2.0
asS'kyle_korver'
p645
(lp646
F164.0
aF35.0
aF246.0
aF396.0
aF158.0
aF32.898
aF616.0
aF268.0
aF35.71699999999999
aF54.0
aF45.0
aF25.751
aF14.0
aF161.0
aF424.0
aF739.0
aF260.0
aF60.0
aF98.0
asS'matthew_dellavedova'
p647
(lp648
F337.0
aF9.0
aF129.0
aF239.0
aF98.0
aF28.823
aF511.0
aF207.0
aF29.635000000000012
aF66.0
aF57.0
aF28.501000000000005
aF33.0
aF178.0
aF381.0
aF569.0
aF162.0
aF44.0
aF116.0
asS'pj_hairston'
p649
(lp650
F38.0
aF11.0
aF149.0
aF241.0
aF70.0
aF16.218
aF408.0
aF145.0
aF21.210999999999988
aF64.0
aF50.0
aF20.817
aF25.0
aF137.0
aF-189.0
aF410.0
aF174.0
aF32.0
aF41.0
asS'caron_butler'
p651
(lp652
F10.0
aF1.0
aF17.0
aF18.0
aF3.0
aF1.333
aF59.0
aF25.0
aF5.801
aF12.0
aF10.0
aF3.167
aF5.0
aF19.0
aF-41.0
aF63.0
aF22.0
aF9.0
aF3.0
asS'jonas_valanciunas'
p653
(lp654
F42.0
aF80.0
aF363.0
aF0.0
aF0.0
aF0.0
aF536.0
aF303.0
aF34.237
aF213.0
aF162.0
aF40.342
aF184.0
aF158.0
aF147.0
aF768.0
aF547.0
aF25.0
aF85.0
asS'andrea_bargnani'
p655
(lp656
F18.0
aF9.0
aF69.0
aF16.0
aF3.0
aF3.0
aF279.0
aF127.0
aF19.279999999999998
aF57.0
aF47.0
aF14.362
aF28.0
aF61.0
aF-191.0
aF304.0
aF97.0
aF4.0
aF26.0
asS'metta_world_peace'
p657
(lp658
F27.0
aF11.0
aF70.0
aF84.0
aF26.0
aF10.25
aF177.0
aF55.0
aF10.520000000000003
aF57.0
aF40.0
aF10.347
aF19.0
aF67.0
aF-64.0
aF176.0
aF89.0
aF22.0
aF15.0
asS'kenneth_faried'
p659
(lp660
F79.0
aF60.0
aF346.0
aF2.0
aF1.0
aF1.0
aF626.0
aF349.0
aF36.84899999999999
aF222.0
aF136.0
aF35.20599999999999
aF235.0
aF169.0
aF-109.0
aF835.0
aF581.0
aF32.0
aF91.0
asS'karl-anthony_towns'
p661
(lp662
F161.0
aF138.0
aF629.0
aF88.0
aF30.0
aF17.983
aF1153.0
aF625.0
aF44.72500000000001
aF275.0
aF223.0
aF54.646
aF228.0
aF245.0
aF-131.0
aF1503.0
aF857.0
aF58.0
aF183.0
asS'wesley_matthews'
p663
(lp664
F151.0
aF17.0
aF211.0
aF525.0
aF189.0
aF25.650999999999993
aF854.0
aF331.0
aF28.926000000000002
aF146.0
aF126.0
aF42.876999999999995
aF27.0
aF179.0
aF97.0
aF977.0
aF238.0
aF78.0
aF78.0
asS'joe_young'
p665
(lp666
F65.0
aF0.0
aF44.0
aF46.0
aF10.0
aF4.766
aF169.0
aF62.0
aF13.648
aF25.0
aF20.0
aF9.167
aF6.0
aF30.0
aF-33.0
aF154.0
aF50.0
aF15.0
aF33.0
asS'alan_williams'
p667
(lp668
F5.0
aF5.0
aF24.0
aF0.0
aF0.0
aF0.0
aF24.0
aF10.0
aF2.806
aF14.0
aF9.0
aF3.3
aF14.0
aF15.0
aF1.0
aF29.0
aF38.0
aF4.0
aF6.0
asS'tim_frazier'
p669
(lp670
F162.0
aF2.0
aF84.0
aF48.0
aF16.0
aF9.433
aF229.0
aF96.0
aF13.215
aF74.0
aF53.0
aF14.935
aF26.0
aF73.0
aF-31.0
aF261.0
aF110.0
aF33.0
aF65.0
asS'aron_baynes'
p671
(lp672
F51.0
aF52.0
aF244.0
aF2.0
aF0.0
aF0.0
aF384.0
aF194.0
aF39.072
aF165.0
aF126.0
aF37.757000000000005
aF140.0
aF151.0
aF-52.0
aF514.0
aF384.0
aF21.0
aF67.0
asS'channing_frye'
p673
(lp674
F71.0
aF28.0
aF199.0
aF235.0
aF91.0
aF24.628999999999994
aF347.0
aF152.0
aF28.319999999999997
aF35.0
aF30.0
aF13.5
aF35.0
aF127.0
aF102.0
aF425.0
aF234.0
aF29.0
aF43.0
asS'donatas_motiejunas'
p675
(lp676
F41.0
aF5.0
aF72.0
aF57.0
aF16.0
aF8.483
aF205.0
aF90.0
aF15.164
aF53.0
aF34.0
aF11.933
aF37.0
aF69.0
aF46.0
aF230.0
aF109.0
aF17.0
aF44.0
asS'kosta_koufos'
p677
(lp678
F33.0
aF70.0
aF254.0
aF0.0
aF0.0
aF0.0
aF444.0
aF236.0
aF37.983999999999995
aF104.0
aF57.0
aF19.412
aF169.0
aF185.0
aF-226.0
aF529.0
aF423.0
aF40.0
aF48.0
asS'justin_harper'
p679
(lp680
F0.0
aF0.0
aF1.0
aF9.0
aF4.0
aF1.6
aF10.0
aF4.0
aF1.5
aF2.0
aF1.0
aF0.5
aF0.0
aF3.0
aF-32.0
aF13.0
aF1.0
aF1.0
aF2.0
asS'demar_derozan'
p681
(lp682
F315.0
aF21.0
aF285.0
aF139.0
aF47.0
aF19.165
aF1377.0
aF614.0
aF34.85
aF653.0
aF555.0
aF66.04899999999999
aF64.0
aF167.0
aF172.0
aF1830.0
aF349.0
aF81.0
aF175.0
asS'luc_mbah_a_moute'
p683
(lp684
F30.0
aF19.0
aF111.0
aF40.0
aF13.0
aF8.334
aF207.0
aF94.0
aF29.877000000000002
aF57.0
aF30.0
aF12.203
aF60.0
aF100.0
aF156.0
aF231.0
aF171.0
aF44.0
aF34.0
asS'jimmy_butler'
p685
(lp686
F321.0
aF43.0
aF279.0
aF205.0
aF64.0
aF18.791
aF1035.0
aF470.0
aF30.248
aF475.0
aF395.0
aF54.249999999999986
aF79.0
aF124.0
aF-12.0
aF1399.0
aF358.0
aF110.0
aF132.0
asS'josh_smith'
p687
(lp688
F90.0
aF47.0
aF141.0
aF143.0
aF41.0
aF13.0
aF349.0
aF127.0
aF18.837999999999997
aF67.0
aF37.0
aF13.083
aF51.0
aF118.0
aF-75.0
aF332.0
aF192.0
aF34.0
aF77.0
asS'tim_duncan'
p689
(lp690
F163.0
aF78.0
aF332.0
aF2.0
aF0.0
aF0.0
aF441.0
aF215.0
aF27.903999999999993
aF131.0
aF92.0
aF31.251000000000005
aF115.0
aF125.0
aF426.0
aF522.0
aF447.0
aF47.0
aF90.0
asS'michael_kidd-gilchrist'
p691
(lp692
F9.0
aF3.0
aF33.0
aF7.0
aF3.0
aF1.5
aF61.0
aF33.0
aF4.089
aF29.0
aF20.0
aF5.208
aF12.0
aF9.0
aF58.0
aF89.0
aF45.0
aF3.0
aF8.0
asS'tiago_splitter'
p693
(lp694
F30.0
aF12.0
aF75.0
aF2.0
aF0.0
aF0.0
aF155.0
aF81.0
aF19.442000000000004
aF48.0
aF39.0
aF15.667
aF45.0
aF71.0
aF102.0
aF201.0
aF120.0
aF20.0
aF24.0
asS'myles_turner'
p695
(lp696
F41.0
aF86.0
aF264.0
aF14.0
aF3.0
aF3.0
aF530.0
aF264.0
aF28.486000000000008
aF121.0
aF88.0
aF28.019000000000005
aF68.0
aF158.0
aF-68.0
aF619.0
aF332.0
aF25.0
aF67.0
asS'al-farouq_aminu'
p697
(lp698
F138.0
aF53.0
aF401.0
aF349.0
aF126.0
aF27.919999999999995
aF719.0
aF299.0
aF33.899999999999984
aF156.0
aF115.0
aF40.684
aF98.0
aF171.0
aF62.0
aF839.0
aF499.0
aF72.0
aF120.0
asS'nikola_vucevic'
p699
(lp700
F179.0
aF70.0
aF402.0
aF9.0
aF2.0
aF2.0
aF1046.0
aF533.0
aF33.212
aF150.0
aF113.0
aF33.798
aF174.0
aF173.0
aF-46.0
aF1181.0
aF576.0
aF53.0
aF123.0
asS'patrick_patterson'
p701
(lp702
F94.0
aF32.0
aF265.0
aF293.0
aF106.0
aF27.476999999999993
aF493.0
aF204.0
aF32.055
aF34.0
aF29.0
aF12.5
aF77.0
aF128.0
aF406.0
aF543.0
aF342.0
aF53.0
aF65.0
asS'alex_stepheson'
p703
(lp704
F2.0
aF5.0
aF9.0
aF0.0
aF0.0
aF0.0
aF27.0
aF9.0
aF1.994
aF12.0
aF4.0
aF1.25
aF19.0
aF12.0
aF-2.0
aF22.0
aF28.0
aF1.0
aF0.0
asS'luis_montero'
p705
(lp706
F1.0
aF0.0
aF4.0
aF9.0
aF1.0
aF1.0
aF19.0
aF5.0
aF2.833
aF4.0
aF3.0
aF1.5
aF0.0
aF1.0
aF-39.0
aF14.0
aF4.0
aF0.0
aF4.0
asS'reggie_bullock'
p707
(lp708
F27.0
aF2.0
aF54.0
aF53.0
aF22.0
aF7.5329999999999995
aF98.0
aF43.0
aF9.31
aF15.0
aF14.0
aF6.667
aF14.0
aF29.0
aF-58.0
aF122.0
aF68.0
aF10.0
aF8.0
asS'mike_scott'
p709
(lp710
F78.0
aF17.0
aF153.0
aF158.0
aF62.0
aF23.117
aF376.0
aF176.0
aF31.456999999999987
aF63.0
aF50.0
aF23.834000000000003
aF53.0
aF102.0
aF113.0
aF464.0
aF206.0
aF25.0
aF42.0
asS'arron_afflalo'
p711
(lp712
F144.0
aF10.0
aF243.0
aF238.0
aF91.0
aF26.465000000000007
aF799.0
aF354.0
aF30.209999999999994
aF131.0
aF110.0
aF37.214
aF23.0
aF142.0
aF-152.0
aF909.0
aF266.0
aF25.0
aF82.0
asS'iman_shumpert'
p713
(lp714
F92.0
aF19.0
aF171.0
aF146.0
aF43.0
aF13.768
aF305.0
aF114.0
aF20.784
aF51.0
aF40.0
aF16.884
aF32.0
aF119.0
aF185.0
aF311.0
aF203.0
aF54.0
aF57.0
asS'kyle_oquinn'
p715
(lp716
F72.0
aF49.0
aF174.0
aF22.0
aF5.0
aF2.667
aF271.0
aF129.0
aF24.84200000000001
aF60.0
aF46.0
aF15.600000000000001
aF76.0
aF107.0
aF-59.0
aF309.0
aF250.0
aF20.0
aF61.0
asS'kyle_anderson'
p717
(lp718
F123.0
aF29.0
aF219.0
aF37.0
aF12.0
aF9.833
aF295.0
aF138.0
aF30.212999999999994
aF83.0
aF62.0
aF25.018
aF25.0
aF97.0
aF205.0
aF350.0
aF244.0
aF60.0
aF59.0
asS'jeff_withey'
p719
(lp720
F20.0
aF53.0
aF117.0
aF2.0
aF0.0
aF0.0
aF162.0
aF87.0
aF24.141000000000002
aF59.0
aF43.0
aF14.517999999999999
aF56.0
aF75.0
aF57.0
aF217.0
aF173.0
aF21.0
aF28.0
asS'kyle_lowry'
p721
(lp722
F494.0
aF34.0
aF310.0
aF547.0
aF212.0
aF29.538999999999994
aF1198.0
aF512.0
aF32.937
aF491.0
aF398.0
aF61.446
aF55.0
aF211.0
aF375.0
aF1634.0
aF365.0
aF158.0
aF225.0
asS'cory_jefferson'
p723
(lp724
F0.0
aF1.0
aF10.0
aF1.0
aF0.0
aF0.0
aF22.0
aF9.0
aF3.125
aF6.0
aF4.0
aF2.0
aF6.0
aF8.0
aF-6.0
aF22.0
aF16.0
aF0.0
aF0.0
asS'giannis_antetokounmpo'
p725
(lp726
F345.0
aF113.0
aF499.0
aF109.0
aF28.0
aF13.748000000000001
aF1013.0
aF513.0
aF40.04999999999999
aF409.0
aF296.0
aF54.77499999999999
aF113.0
aF258.0
aF-164.0
aF1350.0
aF612.0
aF94.0
aF208.0
asS'tayshaun_prince'
p727
(lp728
F74.0
aF13.0
aF115.0
aF23.0
aF4.0
aF4.0
aF229.0
aF102.0
aF30.253
aF19.0
aF13.0
aF6.0
aF32.0
aF62.0
aF-133.0
aF221.0
aF147.0
aF36.0
aF27.0
asS'jerian_grant'
p729
(lp730
F177.0
aF10.0
aF120.0
aF100.0
aF22.0
aF10.816
aF391.0
aF154.0
aF25.915999999999993
aF123.0
aF96.0
aF29.749000000000002
aF23.0
aF97.0
aF-166.0
aF426.0
aF143.0
aF50.0
aF87.0
asS'james_michael_mcadoo'
p731
(lp732
F17.0
aF8.0
aF28.0
aF2.0
aF1.0
aF1.0
aF84.0
aF45.0
aF13.526
aF49.0
aF26.0
aF9.643
aF30.0
aF39.0
aF-88.0
aF117.0
aF58.0
aF10.0
aF16.0
asS'mike_miller'
p733
(lp734
F40.0
aF4.0
aF47.0
aF52.0
aF19.0
aF8.082
aF62.0
aF22.0
aF8.582
aF0.0
aF0.0
aF0.0
aF6.0
aF53.0
aF-90.0
aF63.0
aF53.0
aF13.0
aF17.0
asS'kawhi_leonard'
p735
(lp736
F186.0
aF71.0
aF398.0
aF291.0
aF129.0
aF32.419
aF1090.0
aF551.0
aF36.577999999999996
aF334.0
aF292.0
aF58.01199999999999
aF95.0
aF133.0
aF652.0
aF1523.0
aF493.0
aF128.0
aF105.0
asS'nicolas_batum'
p737
(lp738
F403.0
aF43.0
aF373.0
aF399.0
aF139.0
aF23.334999999999994
aF873.0
aF372.0
aF28.671999999999993
aF192.0
aF163.0
aF48.92099999999999
aF55.0
aF114.0
aF210.0
aF1046.0
aF428.0
aF65.0
aF205.0
asS'brook_lopez'
p739
(lp740
F146.0
aF124.0
aF369.0
aF14.0
aF2.0
aF2.0
aF1157.0
aF591.0
aF37.426
aF403.0
aF317.0
aF56.346999999999994
aF204.0
aF215.0
aF-122.0
aF1501.0
aF573.0
aF58.0
aF175.0
asS'shayne_whittington'
p741
(lp742
F3.0
aF1.0
aF7.0
aF2.0
aF0.0
aF0.0
aF11.0
aF5.0
aF2.4290000000000003
aF2.0
aF1.0
aF0.5
aF5.0
aF7.0
aF-6.0
aF11.0
aF12.0
aF1.0
aF5.0
asS'dj_augustin'
p743
(lp744
F198.0
aF4.0
aF87.0
aF168.0
aF68.0
aF19.237
aF350.0
aF148.0
aF20.833999999999996
aF128.0
aF103.0
aF29.593000000000004
aF8.0
aF85.0
aF-31.0
aF467.0
aF95.0
aF38.0
aF84.0
asS'ian_clark'
p745
(lp746
F64.0
aF13.0
aF55.0
aF84.0
aF30.0
aF12.117
aF202.0
aF89.0
aF23.201999999999998
aF34.0
aF28.0
aF10.417
aF13.0
aF58.0
aF-79.0
aF236.0
aF68.0
aF17.0
aF43.0
asS'marcus_t_thornton'
p747
(lp748
F85.0
aF4.0
aF112.0
aF270.0
aF91.0
aF17.278999999999996
aF542.0
aF216.0
aF22.678000000000008
aF79.0
aF67.0
aF21.25
aF38.0
aF90.0
aF43.0
aF590.0
aF150.0
aF47.0
aF51.0
asS'andrew_nicholson'
p749
(lp750
F25.0
aF22.0
aF167.0
aF114.0
aF41.0
aF14.934000000000001
aF310.0
aF146.0
aF20.276
aF65.0
aF51.0
aF18.683999999999997
aF34.0
aF69.0
aF34.0
aF384.0
aF201.0
aF10.0
aF41.0
asS'pau_gasol'
p751
(lp752
F294.0
aF146.0
aF638.0
aF69.0
aF24.0
aF11.017
aF995.0
aF467.0
aF33.952999999999996
aF289.0
aF229.0
aF53.454
aF155.0
aF148.0
aF-3.0
aF1187.0
aF793.0
aF42.0
aF164.0
asS'brandon_bass'
p753
(lp754
F74.0
aF55.0
aF181.0
aF2.0
aF0.0
aF0.0
aF317.0
aF174.0
aF36.107000000000006
aF148.0
aF125.0
aF37.435
aF104.0
aF125.0
aF-20.0
aF473.0
aF285.0
aF33.0
aF42.0
asS'jared_sullinger'
p755
(lp756
F187.0
aF47.0
aF479.0
aF103.0
aF29.0
aF13.865
aF806.0
aF351.0
aF34.97499999999999
aF161.0
aF103.0
aF35.652
aF194.0
aF209.0
aF214.0
aF834.0
aF673.0
aF75.0
aF102.0
asS'phil_pressey'
p757
(lp758
F75.0
aF4.0
aF28.0
aF18.0
aF4.0
aF2.5
aF78.0
aF30.0
aF5.315
aF25.0
aF13.0
aF4.233
aF3.0
aF28.0
aF-39.0
aF77.0
aF31.0
aF18.0
aF33.0
asS'devin_harris'
p759
(lp760
F118.0
aF13.0
aF120.0
aF158.0
aF52.0
aF18.898999999999997
aF374.0
aF167.0
aF29.215999999999998
aF140.0
aF101.0
aF30.954000000000015
aF18.0
aF124.0
aF-87.0
aF487.0
aF138.0
aF60.0
aF66.0
asS'otto_porter'
p761
(lp762
F120.0
aF32.0
aF294.0
aF267.0
aF98.0
aF25.770999999999997
aF717.0
aF339.0
aF34.672000000000004
aF126.0
aF95.0
aF30.955000000000002
aF97.0
aF163.0
aF45.0
aF871.0
aF391.0
aF105.0
aF70.0
asS'monta_ellis'
p763
(lp764
F383.0
aF37.0
aF229.0
aF282.0
aF87.0
aF21.817999999999998
aF1021.0
aF436.0
aF34.90399999999999
aF206.0
aF162.0
aF46.063
aF42.0
aF174.0
aF108.0
aF1121.0
aF271.0
aF150.0
aF203.0
asS'james_harden'
p765
(lp766
F612.0
aF51.0
aF438.0
aF657.0
aF236.0
aF29.678000000000004
aF1617.0
aF710.0
aF35.737
aF837.0
aF720.0
aF70.716
aF63.0
aF229.0
aF120.0
aF2376.0
aF501.0
aF139.0
aF374.0
asS'sasha_vujacic'
p767
(lp768
F84.0
aF5.0
aF123.0
aF143.0
aF52.0
aF15.278
aF277.0
aF106.0
aF17.832
aF39.0
aF32.0
aF12.917
aF26.0
aF83.0
aF-42.0
aF296.0
aF149.0
aF34.0
aF44.0
asS'cory_joseph'
p769
(lp770
F250.0
aF20.0
aF171.0
aF110.0
aF30.0
aF15.5
aF585.0
aF257.0
aF33.711000000000006
aF174.0
aF133.0
aF42.35900000000001
aF39.0
aF131.0
aF275.0
aF677.0
aF210.0
aF63.0
aF102.0
asS'tony_allen'
p771
(lp772
F70.0
aF18.0
aF192.0
aF42.0
aF15.0
aF12.0
aF469.0
aF215.0
aF27.741999999999994
aF138.0
aF90.0
aF22.671000000000003
aF104.0
aF175.0
aF-89.0
aF535.0
aF296.0
aF110.0
aF78.0
asS'adreian_payne'
p773
(lp774
F29.0
aF11.0
aF91.0
aF32.0
aF9.0
aF4.667
aF145.0
aF53.0
aF16.189999999999998
aF26.0
aF17.0
aF6.25
aF20.0
aF77.0
aF-120.0
aF132.0
aF111.0
aF16.0
aF36.0
asS'trevor_booker'
p775
(lp776
F83.0
aF41.0
aF286.0
aF41.0
aF12.0
aF11.5
aF388.0
aF190.0
aF36.03400000000001
aF106.0
aF71.0
aF21.501
aF166.0
aF169.0
aF65.0
aF463.0
aF452.0
aF59.0
aF81.0
asS'bruno_caboclo'
p777
(lp778
F1.0
aF1.0
aF1.0
aF7.0
aF1.0
aF0.143
aF12.0
aF1.0
aF0.111
aF0.0
aF0.0
aF0.0
aF1.0
aF2.0
aF-8.0
aF3.0
aF2.0
aF2.0
aF4.0
asS'jrue_holiday'
p779
(lp780
F391.0
aF22.0
aF168.0
aF259.0
aF87.0
aF21.311000000000003
aF935.0
aF410.0
aF28.587000000000003
aF216.0
aF182.0
aF47.47200000000001
aF27.0
aF148.0
aF28.0
aF1089.0
aF195.0
aF88.0
aF167.0
asS'cleanthony_early'
p781
(lp782
F6.0
aF3.0
aF22.0
aF15.0
aF4.0
aF1.833
aF40.0
aF12.0
aF3.23
aF4.0
aF3.0
aF1.5
aF4.0
aF16.0
aF0.0
aF31.0
aF26.0
aF2.0
aF9.0
asS'damien_inglis'
p783
(lp784
F10.0
aF3.0
aF29.0
aF13.0
aF3.0
aF1.5
aF37.0
aF13.0
aF4.232
aF8.0
aF7.0
aF2.5
aF2.0
aF11.0
aF-44.0
aF36.0
aF31.0
aF6.0
aF11.0
asS'raymond_felton'
p785
(lp786
F284.0
aF15.0
aF222.0
aF213.0
aF60.0
aF17.872000000000003
aF682.0
aF277.0
aF31.17299999999999
aF176.0
aF149.0
aF45.372
aF36.0
aF141.0
aF-67.0
aF763.0
aF258.0
aF68.0
aF121.0
asS'damian_lillard'
p787
(lp788
F512.0
aF28.0
aF257.0
aF610.0
aF229.0
aF26.38399999999999
aF1474.0
aF618.0
aF31.057
aF464.0
aF414.0
aF65.04999999999998
aF45.0
aF165.0
aF94.0
aF1879.0
aF302.0
aF65.0
aF242.0
asS'james_young'
p789
(lp790
F9.0
aF1.0
aF22.0
aF26.0
aF6.0
aF5.0
aF36.0
aF11.0
aF5.067
aF4.0
aF1.0
aF0.5
aF4.0
aF17.0
aF-27.0
aF29.0
aF26.0
aF6.0
aF5.0
asS'glenn_robinson_iii'
p791
(lp792
F26.0
aF9.0
aF56.0
aF37.0
aF14.0
aF6.333
aF151.0
aF65.0
aF15.363999999999999
aF39.0
aF27.0
aF9.967
aF12.0
aF21.0
aF-37.0
aF171.0
aF68.0
aF17.0
aF18.0
asS'greivis_vasquez'
p793
(lp794
F91.0
aF0.0
aF42.0
aF73.0
aF18.0
aF4.759
aF138.0
aF45.0
aF7.1160000000000005
aF26.0
aF22.0
aF7.2669999999999995
aF5.0
aF42.0
aF-92.0
aF130.0
aF47.0
aF10.0
aF40.0
asS'luke_babbitt'
p795
(lp796
F53.0
aF7.0
aF123.0
aF109.0
aF44.0
aF15.433000000000002
aF289.0
aF122.0
aF17.118000000000002
aF50.0
aF39.0
aF13.668
aF25.0
aF90.0
aF-26.0
aF327.0
aF148.0
aF11.0
aF23.0
asS'terry_rozier'
p797
(lp798
F37.0
aF1.0
aF39.0
aF27.0
aF6.0
aF4.333
aF106.0
aF29.0
aF8.047
aF10.0
aF8.0
aF4.5
aF24.0
aF23.0
aF-46.0
aF72.0
aF63.0
aF6.0
aF19.0
asS'alexis_ajinca'
p799
(lp800
F31.0
aF36.0
aF194.0
aF1.0
aF0.0
aF0.0
aF315.0
aF150.0
aF26.03
aF62.0
aF52.0
aF19.134
aF75.0
aF134.0
aF-66.0
aF352.0
aF269.0
aF19.0
aF54.0
asS'raulzinho_neto'
p801
(lp802
F174.0
aF2.0
aF103.0
aF162.0
aF64.0
aF30.68099999999999
aF418.0
aF180.0
aF33.616
aF70.0
aF52.0
aF25.167
aF17.0
aF122.0
aF76.0
aF476.0
aF120.0
aF62.0
aF109.0
asS'tyler_johnson'
p803
(lp804
F79.0
aF14.0
aF81.0
aF71.0
aF27.0
aF11.417
aF243.0
aF118.0
aF16.231
aF64.0
aF51.0
aF15.958
aF28.0
aF66.0
aF9.0
aF314.0
aF109.0
aF24.0
aF47.0
asS'maurice_harkless'
p805
(lp806
F67.0
aF35.0
aF179.0
aF140.0
aF39.0
aF17.364000000000004
aF411.0
aF195.0
aF31.922999999999995
aF111.0
aF69.0
aF23.132
aF101.0
aF124.0
aF30.0
aF498.0
aF280.0
aF49.0
aF62.0
asS'brandon_knight'
p807
(lp808
F263.0
aF20.0
aF166.0
aF351.0
aF120.0
aF17.912999999999997
aF895.0
aF371.0
aF21.29
aF183.0
aF156.0
aF38.9
aF36.0
aF124.0
aF-210.0
aF1018.0
aF202.0
aF61.0
aF177.0
asS'brandan_wright'
p809
(lp810
F6.0
aF15.0
aF29.0
aF0.0
aF0.0
aF0.0
aF52.0
aF35.0
aF7.75
aF24.0
aF13.0
aF4.202999999999999
aF14.0
aF21.0
aF-56.0
aF83.0
aF43.0
aF5.0
aF10.0
asS'shane_larkin'
p811
(lp812
F342.0
aF12.0
aF152.0
aF108.0
aF39.0
aF18.166
aF502.0
aF222.0
aF33.06500000000001
aF107.0
aF83.0
aF31.0
aF28.0
aF121.0
aF-344.0
aF566.0
aF180.0
aF95.0
aF146.0
asS'greg_smith'
p813
(lp814
F6.0
aF1.0
aF30.0
aF0.0
aF0.0
aF0.0
aF32.0
aF18.0
aF6.617
aF17.0
aF7.0
aF3.25
aF12.0
aF28.0
aF-77.0
aF43.0
aF42.0
aF4.0
aF7.0
asS'kevin_durant'
p815
(lp816
F361.0
aF85.0
aF544.0
aF481.0
aF186.0
aF29.016000000000002
aF1381.0
aF698.0
aF37.34299999999999
aF498.0
aF447.0
aF63.021999999999984
aF45.0
aF137.0
aF647.0
aF2029.0
aF589.0
aF69.0
aF250.0
asS'nate_robinson'
p817
(lp818
F4.0
aF0.0
aF0.0
aF1.0
aF0.0
aF0.0
aF1.0
aF0.0
aF0.0
aF0.0
aF0.0
aF0.0
aF0.0
aF5.0
aF-20.0
aF0.0
aF0.0
aF1.0
aF0.0
asS'evan_turner'
p819
(lp820
F359.0
aF28.0
aF347.0
aF83.0
aF20.0
aF12.283
aF753.0
aF343.0
aF35.794000000000004
aF179.0
aF148.0
aF44.359
aF50.0
aF139.0
aF101.0
aF854.0
aF397.0
aF80.0
aF169.0
asS'ricky_rubio'
p821
(lp822
F657.0
aF10.0
aF286.0
aF190.0
aF62.0
aF21.279
aF586.0
aF219.0
aF27.006
aF314.0
aF266.0
aF58.044
aF40.0
aF201.0
aF16.0
aF766.0
aF326.0
aF162.0
aF193.0
asS'miles_plumlee'
p823
(lp824
F16.0
aF50.0
aF138.0
aF0.0
aF0.0
aF0.0
aF233.0
aF140.0
aF31.531000000000006
aF59.0
aF34.0
aF10.009
aF94.0
aF73.0
aF-99.0
aF314.0
aF232.0
aF21.0
aF40.0
asS'gorgui_dieng'
p825
(lp826
F143.0
aF96.0
aF428.0
aF20.0
aF6.0
aF4.0
aF579.0
aF308.0
aF41.275000000000006
aF248.0
aF205.0
aF50.226
aF157.0
aF219.0
aF-7.0
aF827.0
aF585.0
aF94.0
aF140.0
asS'david_west'
p827
(lp828
F143.0
aF55.0
aF237.0
aF7.0
aF3.0
aF3.0
aF448.0
aF244.0
aF45.13099999999999
aF80.0
aF63.0
aF25.217000000000002
aF72.0
aF142.0
aF329.0
aF554.0
aF309.0
aF44.0
aF68.0
asS'tristan_t_thompson'
p829
(lp830
F62.0
aF51.0
aF470.0
aF0.0
aF0.0
aF0.0
aF420.0
aF247.0
aF44.693
aF242.0
aF149.0
aF36.056
aF268.0
aF202.0
aF357.0
aF643.0
aF738.0
aF38.0
aF61.0
asS'dante_cunningham'
p831
(lp832
F77.0
aF33.0
aF179.0
aF174.0
aF55.0
aF19.684000000000005
aF412.0
aF186.0
aF33.739999999999995
aF82.0
aF57.0
aF22.872999999999998
aF57.0
aF173.0
aF-279.0
aF484.0
aF236.0
aF42.0
aF41.0
asS'nikola_pekovic'
p833
(lp834
F11.0
aF0.0
aF14.0
aF0.0
aF0.0
aF0.0
aF50.0
aF19.0
aF4.144
aF20.0
aF16.0
aF3.5
aF7.0
aF22.0
aF-63.0
aF54.0
aF21.0
aF1.0
aF9.0
asS'delon_wright'
p835
(lp836
F31.0
aF3.0
aF29.0
aF13.0
aF5.0
aF2.0
aF80.0
aF36.0
aF7.428999999999999
aF35.0
aF26.0
aF7.5
aF8.0
aF7.0
aF13.0
aF103.0
aF37.0
aF8.0
aF16.0
asS'jared_dudley'
p837
(lp838
F170.0
aF18.0
aF232.0
aF238.0
aF100.0
aF28.732000000000003
aF487.0
aF233.0
aF36.24100000000001
aF98.0
aF72.0
aF26.208000000000002
aF54.0
aF190.0
aF60.0
aF638.0
aF286.0
aF75.0
aF80.0
asS'michael_beasley'
p839
(lp840
F16.0
aF9.0
aF69.0
aF9.0
aF3.0
aF2.333
aF205.0
aF107.0
aF10.767999999999999
aF49.0
aF38.0
aF11.167
aF29.0
aF39.0
aF-68.0
aF255.0
aF98.0
aF11.0
aF24.0
asS'sonny_weems'
p841
(lp842
F49.0
aF1.0
aF46.0
aF41.0
aF15.0
aF7.334
aF110.0
aF42.0
aF13.676
aF15.0
aF8.0
aF3.75
aF7.0
aF47.0
aF-97.0
aF107.0
aF53.0
aF10.0
aF41.0
asS'david_lee'
p843
(lp844
F84.0
aF28.0
aF204.0
aF1.0
aF0.0
aF0.0
aF335.0
aF178.0
aF27.668999999999993
aF93.0
aF71.0
aF22.868000000000002
aF101.0
aF114.0
aF-84.0
aF427.0
aF305.0
aF22.0
aF66.0
asS'andrew_goudelock'
p845
(lp846
F4.0
aF2.0
aF1.0
aF9.0
aF1.0
aF0.5
aF20.0
aF9.0
aF2.2969999999999997
aF4.0
aF3.0
aF0.75
aF1.0
aF4.0
aF10.0
aF22.0
aF2.0
aF6.0
aF7.0
asS'robert_covington'
p847
(lp848
F97.0
aF40.0
aF354.0
aF482.0
aF170.0
aF21.505
aF712.0
aF274.0
aF24.762
aF177.0
aF140.0
aF35.483000000000004
aF65.0
aF232.0
aF-280.0
aF858.0
aF419.0
aF105.0
aF143.0
asS'goran_dragic'
p849
(lp850
F419.0
aF17.0
aF223.0
aF205.0
aF64.0
aF18.144
aF875.0
aF417.0
aF33.81799999999999
aF165.0
aF120.0
aF35.342
aF54.0
aF188.0
aF203.0
aF1018.0
aF277.0
aF71.0
aF185.0
asS'jj_hickson'
p851
(lp852
F23.0
aF14.0
aF93.0
aF1.0
aF0.0
aF0.0
aF155.0
aF80.0
aF14.140999999999998
aF103.0
aF46.0
aF12.420000000000002
aF39.0
aF47.0
aF-59.0
aF206.0
aF132.0
aF15.0
aF25.0
asS'zach_lavine'
p853
(lp854
F251.0
aF17.0
aF201.0
aF316.0
aF123.0
aF28.214999999999993
aF959.0
aF433.0
aF34.905
aF203.0
aF161.0
aF45.591
aF27.0
aF193.0
aF-292.0
aF1150.0
aF228.0
aF69.0
aF155.0
asS'bojan_bogdanovic'
p855
(lp856
F99.0
aF5.0
aF219.0
aF338.0
aF129.0
aF26.841999999999988
aF749.0
aF324.0
aF31.96900000000001
aF132.0
aF110.0
aF34.219
aF36.0
aF119.0
aF-391.0
aF887.0
aF255.0
aF29.0
aF115.0
asS'nemanja_bjelica'
p857
(lp858
F83.0
aF21.0
aF161.0
aF125.0
aF48.0
aF17.4
aF235.0
aF110.0
aF25.423000000000005
aF55.0
aF40.0
aF14.166
aF49.0
aF154.0
aF-127.0
aF308.0
aF210.0
aF26.0
aF47.0
asS'jordan_farmar'
p859
(lp860
F37.0
aF2.0
aF21.0
aF45.0
aF16.0
aF4.066000000000001
aF100.0
aF42.0
aF4.817
aF10.0
aF10.0
aF5.0
aF4.0
aF22.0
aF-64.0
aF110.0
aF25.0
aF15.0
aF18.0
asS'seth_curry'
p861
(lp862
F67.0
aF3.0
aF51.0
aF111.0
aF50.0
aF13.751000000000001
aF224.0
aF102.0
aF20.631999999999998
aF54.0
aF45.0
aF14.065999999999999
aF9.0
aF41.0
aF-36.0
aF299.0
aF60.0
aF22.0
aF36.0
asS'kelly_olynyk'
p863
(lp864
F105.0
aF33.0
aF209.0
aF210.0
aF85.0
aF26.116999999999997
aF556.0
aF253.0
aF29.247999999999994
aF128.0
aF96.0
aF31.821000000000005
aF72.0
aF163.0
aF216.0
aF687.0
aF281.0
aF52.0
aF74.0
asS'branden_dawson'
p865
(lp866
F0.0
aF1.0
aF2.0
aF0.0
aF0.0
aF0.0
aF5.0
aF2.0
aF1.0
aF1.0
aF1.0
aF1.0
aF2.0
aF2.0
aF-15.0
aF5.0
aF4.0
aF0.0
aF0.0
asS'lance_stephenson'
p867
(lp868
F133.0
aF9.0
aF183.0
aF78.0
aF30.0
aF15.333
aF474.0
aF228.0
aF29.797999999999995
aF111.0
aF87.0
aF25.177
aF40.0
aF135.0
aF-64.0
aF573.0
aF223.0
aF43.0
aF94.0
asS'demarre_carroll'
p869
(lp870
F27.0
aF6.0
aF91.0
aF118.0
aF46.0
aF10.127
aF270.0
aF105.0
aF9.917
aF50.0
aF30.0
aF10.983
aF31.0
aF63.0
aF47.0
aF286.0
aF122.0
aF44.0
aF28.0
asS'derrick_williams'
p871
(lp872
F75.0
aF9.0
aF249.0
aF150.0
aF44.0
aF16.686
aF565.0
aF254.0
aF33.934999999999974
aF256.0
aF194.0
aF46.832
aF47.0
aF69.0
aF-205.0
aF746.0
aF296.0
aF29.0
aF61.0
asS'louis_williams'
p873
(lp874
F167.0
aF19.0
aF138.0
aF320.0
aF110.0
aF21.76099999999999
aF693.0
aF283.0
aF26.69299999999999
aF424.0
aF352.0
aF53.172
aF31.0
aF107.0
aF-403.0
aF1028.0
aF169.0
aF62.0
aF107.0
asS'steve_novak'
p875
(lp876
F0.0
aF0.0
aF5.0
aF15.0
aF7.0
aF3.5
aF18.0
aF8.0
aF4.25
aF1.0
aF1.0
aF1.0
aF0.0
aF3.0
aF7.0
aF24.0
aF5.0
aF0.0
aF1.0
asS'reggie_jackson'
p877
(lp878
F492.0
aF11.0
aF195.0
aF334.0
aF118.0
aF28.246999999999993
aF1244.0
aF540.0
aF34.355
aF337.0
aF291.0
aF60.041999999999994
aF58.0
aF187.0
aF129.0
aF1489.0
aF253.0
aF59.0
aF223.0
asS'marreese_speights'
p879
(lp880
F61.0
aF34.0
aF162.0
aF62.0
aF24.0
aF12.85
aF456.0
aF197.0
aF28.739
aF114.0
aF94.0
aF35.900000000000006
aF77.0
aF117.0
aF11.0
aF512.0
aF239.0
aF19.0
aF66.0
asS'taj_gibson'
p881
(lp882
F106.0
aF77.0
aF298.0
aF3.0
aF0.0
aF0.0
aF500.0
aF263.0
aF38.00899999999999
aF146.0
aF101.0
aF36.678
aF206.0
aF180.0
aF-153.0
aF627.0
aF504.0
aF47.0
aF78.0
asS'terrence_jones'
p883
(lp884
F41.0
aF39.0
aF149.0
aF79.0
aF25.0
aF10.599
aF367.0
aF166.0
aF19.64
aF116.0
aF77.0
aF22.68
aF62.0
aF86.0
aF-241.0
aF434.0
aF211.0
aF23.0
aF49.0
asS'jonas_jerebko'
p885
(lp886
F62.0
aF24.0
aF211.0
aF108.0
aF43.0
aF18.667
aF286.0
aF118.0
aF29.934000000000005
aF78.0
aF61.0
aF27.5
aF77.0
aF137.0
aF32.0
aF340.0
aF288.0
aF20.0
aF52.0
asS'darrun_hilliard'
p887
(lp888
F27.0
aF1.0
aF40.0
aF50.0
aF19.0
aF8.25
aF131.0
aF52.0
aF14.17
aF40.0
aF29.0
aF10.625
aF5.0
aF28.0
aF-3.0
aF152.0
aF45.0
aF9.0
aF19.0
asS'xavier_munford'
p889
(lp890
F22.0
aF3.0
aF28.0
aF23.0
aF9.0
aF5.0
aF77.0
aF32.0
aF4.6979999999999995
aF14.0
aF7.0
aF4.0
aF3.0
aF25.0
aF-25.0
aF80.0
aF31.0
aF13.0
aF15.0
asS'gerald_henderson'
p891
(lp892
F75.0
aF19.0
aF181.0
aF136.0
aF48.0
aF20.916999999999998
aF529.0
aF232.0
aF30.374
aF146.0
aF112.0
aF34.458
aF30.0
aF87.0
aF20.0
aF624.0
aF211.0
aF39.0
aF68.0
asS'kobe_bryant'
p893
(lp894
F184.0
aF13.0
aF206.0
aF467.0
aF133.0
aF17.744999999999997
aF1113.0
aF398.0
aF23.259999999999998
aF281.0
aF232.0
aF46.801
aF41.0
aF115.0
aF-569.0
aF1161.0
aF247.0
aF62.0
aF129.0
asS'salah_mejri'
p895
(lp896
F10.0
aF36.0
aF82.0
aF1.0
aF0.0
aF0.0
aF78.0
aF49.0
aF14.109
aF46.0
aF27.0
aF8.406
aF41.0
aF54.0
aF43.0
aF125.0
aF123.0
aF8.0
aF23.0
asS'marvin_williams'
p897
(lp898
F110.0
aF77.0
aF394.0
aF378.0
aF152.0
aF30.728999999999996
aF747.0
aF338.0
aF36.52599999999998
aF144.0
aF120.0
aF43.417
aF127.0
aF133.0
aF246.0
aF948.0
aF521.0
aF58.0
aF62.0
asS'evan_fournier'
p899
(lp900
F214.0
aF2.0
aF192.0
aF390.0
aF156.0
aF31.170999999999985
aF929.0
aF429.0
aF36.106
aF238.0
aF199.0
aF53.051
aF33.0
aF214.0
aF-191.0
aF1213.0
aF225.0
aF96.0
aF133.0
asS'kevin_garnett'
p901
(lp902
F62.0
aF10.0
aF135.0
aF1.0
aF0.0
aF0.0
aF115.0
aF54.0
aF16.481
aF21.0
aF14.0
aF7.5
aF15.0
aF70.0
aF56.0
aF122.0
aF150.0
aF28.0
aF16.0
asS'chandler_parsons'
p903
(lp904
F169.0
aF21.0
aF256.0
aF251.0
aF104.0
aF22.911999999999992
aF651.0
aF320.0
aF28.645999999999997
aF136.0
aF93.0
aF23.111000000000004
aF29.0
aF114.0
aF3.0
aF837.0
aF285.0
aF46.0
aF95.0
asS'richard_jefferson'
p905
(lp906
F59.0
aF14.0
aF113.0
aF173.0
aF66.0
aF24.597999999999995
aF312.0
aF143.0
aF30.391999999999996
aF87.0
aF58.0
aF17.410000000000004
aF15.0
aF129.0
aF-45.0
aF410.0
aF128.0
aF33.0
aF43.0
asS'christian_wood'
p907
(lp908
F3.0
aF7.0
aF25.0
aF11.0
aF4.0
aF3.0
aF53.0
aF22.0
aF4.217
aF21.0
aF13.0
aF3.05
aF13.0
aF11.0
aF-49.0
aF61.0
aF38.0
aF5.0
aF2.0
asS'joe_harris'
p909
(lp910
F2.0
aF0.0
aF3.0
aF4.0
aF1.0
aF1.0
aF4.0
aF1.0
aF1.0
aF0.0
aF0.0
aF0.0
aF0.0
aF1.0
aF-21.0
aF3.0
aF3.0
aF0.0
aF1.0
asS'jon_leuer'
p911
(lp912
F72.0
aF30.0
aF297.0
aF110.0
aF42.0
aF20.833
aF466.0
aF224.0
aF30.002000000000002
aF101.0
aF77.0
aF27.166000000000004
aF76.0
aF125.0
aF-67.0
aF567.0
aF373.0
aF38.0
aF75.0
asS'justin_holiday'
p913
(lp914
F56.0
aF19.0
aF78.0
aF105.0
aF36.0
aF12.13
aF228.0
aF88.0
aF16.061
aF37.0
aF27.0
aF10.0
aF12.0
aF61.0
aF-89.0
aF239.0
aF90.0
aF32.0
aF39.0
asS'chris_mccullough'
p915
(lp916
F9.0
aF12.0
aF43.0
aF34.0
aF13.0
aF6.75
aF109.0
aF44.0
aF9.531
aF23.0
aF11.0
aF4.45
aF25.0
aF39.0
aF-119.0
aF112.0
aF68.0
aF28.0
aF15.0
asS'archie_goodwin'
p917
(lp918
F118.0
aF13.0
aF115.0
aF99.0
aF23.0
aF7.8500000000000005
aF422.0
aF176.0
aF22.511000000000003
aF193.0
aF130.0
aF29.355
aF27.0
aF84.0
aF-209.0
aF505.0
aF142.0
aF27.0
aF100.0
asS'chris_copeland'
p919
(lp920
F11.0
aF0.0
aF9.0
aF36.0
aF10.0
aF4.31
aF51.0
aF17.0
aF5.595000000000001
aF7.0
aF6.0
aF3.5
aF1.0
aF17.0
aF-79.0
aF50.0
aF10.0
aF2.0
aF6.0
asS'norris_cole'
p921
(lp922
F167.0
aF5.0
aF141.0
aF102.0
aF33.0
aF11.636
aF484.0
aF196.0
aF17.544999999999998
aF65.0
aF52.0
aF18.857
aF10.0
aF102.0
aF-101.0
aF477.0
aF151.0
aF37.0
aF75.0
asS'garrett_temple'
p923
(lp924
F140.0
aF18.0
aF176.0
aF258.0
aF89.0
aF25.274999999999995
aF505.0
aF201.0
aF30.29699999999999
aF125.0
aF91.0
aF31.313999999999997
aF36.0
aF195.0
aF-37.0
aF582.0
aF212.0
aF69.0
aF64.0
asS'brian_roberts'
p925
(lp926
F54.0
aF2.0
aF35.0
aF42.0
aF15.0
aF10.583
aF165.0
aF74.0
aF20.531999999999996
aF47.0
aF42.0
aF16.3
aF6.0
aF35.0
aF-63.0
aF205.0
aF41.0
aF10.0
aF23.0
asS'chuck_hayes'
p927
(lp928
F2.0
aF0.0
aF8.0
aF0.0
aF0.0
aF0.0
aF2.0
aF1.0
aF0.5
aF2.0
aF2.0
aF1.0
aF0.0
aF6.0
aF-3.0
aF4.0
aF8.0
aF0.0
aF3.0
asS'john_henson'
p929
(lp930
F54.0
aF109.0
aF134.0
aF1.0
aF0.0
aF0.0
aF291.0
aF164.0
aF30.144000000000002
aF117.0
aF69.0
aF17.874000000000002
aF87.0
aF131.0
aF-147.0
aF397.0
aF221.0
aF18.0
aF64.0
asS'omri_casspi'
p931
(lp932
F95.0
aF17.0
aF352.0
aF274.0
aF112.0
aF28.250000000000007
aF622.0
aF299.0
aF33.172
aF159.0
aF103.0
aF30.682000000000006
aF58.0
aF154.0
aF8.0
aF813.0
aF410.0
aF56.0
aF94.0
asS'jordan_hill'
p933
(lp934
F87.0
aF37.0
aF295.0
aF1.0
aF0.0
aF0.0
aF549.0
aF278.0
aF36.551
aF125.0
aF89.0
aF33.584
aF156.0
aF155.0
aF52.0
aF645.0
aF451.0
aF36.0
aF92.0
asS'sam_dekker'
p935
(lp936
F0.0
aF0.0
aF1.0
aF0.0
aF0.0
aF0.0
aF0.0
aF0.0
aF0.0
aF0.0
aF0.0
aF0.0
aF0.0
aF0.0
aF-2.0
aF0.0
aF1.0
aF1.0
aF0.0
asS'markieff_morris'
p937
(lp938
F124.0
aF34.0
aF279.0
aF155.0
aF47.0
aF17.061999999999998
aF718.0
aF305.0
aF26.388
aF147.0
aF108.0
aF30.970000000000002
aF73.0
aF184.0
aF-90.0
aF765.0
aF352.0
aF58.0
aF135.0
asS'jason_terry'
p939
(lp940
F103.0
aF9.0
aF65.0
aF261.0
aF93.0
aF22.995999999999995
aF376.0
aF151.0
aF26.979999999999993
aF33.0
aF27.0
aF13.8
aF14.0
aF91.0
aF32.0
aF422.0
aF79.0
aF47.0
aF49.0
asS'zaza_pachulia'
p941
(lp942
F128.0
aF22.0
aF469.0
aF3.0
aF0.0
aF0.0
aF470.0
aF219.0
aF33.61300000000001
aF276.0
aF212.0
aF50.21499999999999
aF249.0
aF181.0
aF-7.0
aF650.0
aF718.0
aF64.0
aF119.0
asS'timofey_mozgov'
p943
(lp944
F33.0
aF57.0
aF227.0
aF7.0
aF1.0
aF0.5
aF359.0
aF203.0
aF40.852999999999994
aF95.0
aF68.0
aF27.567000000000004
aF110.0
aF159.0
aF2.0
aF475.0
aF337.0
aF22.0
aF71.0
asS'thomas_robinson'
p945
(lp946
F46.0
aF36.0
aF223.0
aF1.0
aF0.0
aF0.0
aF291.0
aF130.0
aF24.454000000000004
aF109.0
aF47.0
aF16.119
aF136.0
aF111.0
aF-278.0
aF307.0
aF359.0
aF39.0
aF69.0
asS'steve_blake'
p947
(lp948
F200.0
aF5.0
aF80.0
aF151.0
aF52.0
aF18.316000000000003
aF240.0
aF93.0
aF21.643000000000008
aF20.0
aF16.0
aF8.0
aF9.0
aF70.0
aF-52.0
aF254.0
aF89.0
aF24.0
aF81.0
asS'stanley_johnson'
p949
(lp950
F118.0
aF12.0
aF248.0
aF205.0
aF63.0
aF19.492
aF600.0
aF225.0
aF26.818999999999992
aF102.0
aF80.0
aF29.149
aF58.0
aF178.0
aF-132.0
aF593.0
aF306.0
aF55.0
aF114.0
asS'luol_deng'
p951
(lp952
F140.0
aF29.0
aF335.0
aF256.0
aF88.0
aF23.54999999999999
aF745.0
aF339.0
aF32.815
aF192.0
aF145.0
aF40.724000000000004
aF108.0
aF122.0
aF25.0
aF911.0
aF443.0
aF74.0
aF81.0
asS'brandon_rush'
p953
(lp954
F57.0
aF23.0
aF160.0
aF157.0
aF65.0
aF24.434
aF260.0
aF111.0
aF26.74900000000001
aF28.0
aF18.0
aF6.833
aF21.0
aF57.0
aF-31.0
aF305.0
aF181.0
aF20.0
aF33.0
asS'omer_asik'
p955
(lp956
F26.0
aF23.0
aF294.0
aF0.0
aF0.0
aF0.0
aF195.0
aF104.0
aF26.961000000000002
aF112.0
aF61.0
aF17.418
aF120.0
aF124.0
aF-204.0
aF269.0
aF414.0
aF21.0
aF60.0
asS'orlando_johnson'
p957
(lp958
F2.0
aF3.0
aF11.0
aF10.0
aF2.0
aF1.5
aF34.0
aF9.0
aF1.3359999999999999
aF8.0
aF6.0
aF2.25
aF4.0
aF9.0
aF-37.0
aF26.0
aF15.0
aF3.0
aF4.0
asS'ty_lawson'
p959
(lp960
F237.0
aF7.0
aF94.0
aF108.0
aF36.0
aF14.452
aF354.0
aF139.0
aF22.677000000000003
aF86.0
aF59.0
aF21.137000000000004
aF26.0
aF87.0
aF-160.0
aF373.0
aF120.0
aF53.0
aF95.0
asS'chris_kaman'
p961
(lp962
F11.0
aF1.0
aF17.0
aF4.0
aF1.0
aF1.0
aF43.0
aF20.0
aF6.56
aF3.0
aF3.0
aF2.0
aF7.0
aF15.0
aF-31.0
aF44.0
aF24.0
aF1.0
aF8.0
asS'gary_neal'
p963
(lp964
F47.0
aF1.0
aF72.0
aF100.0
aF41.0
aF15.411999999999999
aF325.0
aF151.0
aF18.526999999999997
aF55.0
aF47.0
aF18.224
aF11.0
aF55.0
aF-163.0
aF390.0
aF83.0
aF20.0
aF29.0
asS'kentavious_caldwell-pope'
p965
(lp966
F138.0
aF17.0
aF212.0
aF369.0
aF114.0
aF23.429000000000002
aF960.0
aF403.0
aF31.922
aF228.0
aF185.0
aF53.499
aF70.0
aF167.0
aF173.0
aF1105.0
aF282.0
aF110.0
aF105.0
asS'enes_kanter'
p967
(lp968
F33.0
aF33.0
aF415.0
aF21.0
aF10.0
aF8.833
aF719.0
aF414.0
aF45.951
aF251.0
aF200.0
aF50.145
aF249.0
aF166.0
aF129.0
aF1038.0
aF664.0
aF26.0
aF115.0
as.